
RGB_TEST.elf:     file format elf32-littlearm

Sections:
Idx Name          Size      VMA       LMA       File off  Algn
  0 .isr_vector   000001e4  08000000  08000000  00010000  2**0
                  CONTENTS, ALLOC, LOAD, READONLY, DATA
  1 .text         00002ce4  080001e4  080001e4  000101e4  2**2
                  CONTENTS, ALLOC, LOAD, READONLY, CODE
  2 .rodata       0000a120  08002ec8  08002ec8  00012ec8  2**0
                  CONTENTS, ALLOC, LOAD, READONLY, DATA
  3 .ARM.extab    00000000  0800cfe8  0800cfe8  00020020  2**0
                  CONTENTS
  4 .ARM          00000000  0800cfe8  0800cfe8  00020020  2**0
                  CONTENTS
  5 .preinit_array 00000000  0800cfe8  0800cfe8  00020020  2**0
                  CONTENTS, ALLOC, LOAD, DATA
  6 .init_array   00000004  0800cfe8  0800cfe8  0001cfe8  2**2
                  CONTENTS, ALLOC, LOAD, DATA
  7 .fini_array   00000004  0800cfec  0800cfec  0001cfec  2**2
                  CONTENTS, ALLOC, LOAD, DATA
  8 .data         00000020  20000000  0800cff0  00020000  2**2
                  CONTENTS, ALLOC, LOAD, DATA
  9 .bss          00000d98  20000020  0800d010  00020020  2**2
                  ALLOC
 10 ._user_heap_stack 00000600  20000db8  0800d010  00020db8  2**0
                  ALLOC
 11 .ARM.attributes 00000029  00000000  00000000  00020020  2**0
                  CONTENTS, READONLY
 12 .comment      0000007b  00000000  00000000  00020049  2**0
                  CONTENTS, READONLY
 13 .debug_frame  0000004c  00000000  00000000  000200c4  2**2
                  CONTENTS, READONLY, DEBUGGING

Disassembly of section .text:

080001e4 <__do_global_dtors_aux>:
 80001e4:	b510      	push	{r4, lr}
 80001e6:	4c05      	ldr	r4, [pc, #20]	; (80001fc <__do_global_dtors_aux+0x18>)
 80001e8:	7823      	ldrb	r3, [r4, #0]
 80001ea:	b933      	cbnz	r3, 80001fa <__do_global_dtors_aux+0x16>
 80001ec:	4b04      	ldr	r3, [pc, #16]	; (8000200 <__do_global_dtors_aux+0x1c>)
 80001ee:	b113      	cbz	r3, 80001f6 <__do_global_dtors_aux+0x12>
 80001f0:	4804      	ldr	r0, [pc, #16]	; (8000204 <__do_global_dtors_aux+0x20>)
 80001f2:	f3af 8000 	nop.w
 80001f6:	2301      	movs	r3, #1
 80001f8:	7023      	strb	r3, [r4, #0]
 80001fa:	bd10      	pop	{r4, pc}
 80001fc:	20000020 	.word	0x20000020
 8000200:	00000000 	.word	0x00000000
 8000204:	08002eb0 	.word	0x08002eb0

08000208 <frame_dummy>:
 8000208:	b508      	push	{r3, lr}
 800020a:	4b03      	ldr	r3, [pc, #12]	; (8000218 <frame_dummy+0x10>)
 800020c:	b11b      	cbz	r3, 8000216 <frame_dummy+0xe>
 800020e:	4903      	ldr	r1, [pc, #12]	; (800021c <frame_dummy+0x14>)
 8000210:	4803      	ldr	r0, [pc, #12]	; (8000220 <frame_dummy+0x18>)
 8000212:	f3af 8000 	nop.w
 8000216:	bd08      	pop	{r3, pc}
 8000218:	00000000 	.word	0x00000000
 800021c:	20000024 	.word	0x20000024
 8000220:	08002eb0 	.word	0x08002eb0

08000224 <crc_check>:
 8000224:	b570      	push	{r4, r5, r6, lr}
 8000226:	f64f 73ff 	movw	r3, #65535	; 0xffff
 800022a:	4604      	mov	r4, r0
 800022c:	f24a 0501 	movw	r5, #40961	; 0xa001
 8000230:	1a22      	subs	r2, r4, r0
 8000232:	b2d2      	uxtb	r2, r2
 8000234:	4291      	cmp	r1, r2
 8000236:	d805      	bhi.n	8000244 <crc_check+0x20>
 8000238:	4a09      	ldr	r2, [pc, #36]	; (8000260 <crc_check+0x3c>)
 800023a:	7013      	strb	r3, [r2, #0]
 800023c:	4a09      	ldr	r2, [pc, #36]	; (8000264 <crc_check+0x40>)
 800023e:	0a1b      	lsrs	r3, r3, #8
 8000240:	7013      	strb	r3, [r2, #0]
 8000242:	bd70      	pop	{r4, r5, r6, pc}
 8000244:	f814 2b01 	ldrb.w	r2, [r4], #1
 8000248:	4053      	eors	r3, r2
 800024a:	2208      	movs	r2, #8
 800024c:	f003 0601 	and.w	r6, r3, #1
 8000250:	085b      	lsrs	r3, r3, #1
 8000252:	b106      	cbz	r6, 8000256 <crc_check+0x32>
 8000254:	406b      	eors	r3, r5
 8000256:	3a01      	subs	r2, #1
 8000258:	f012 02ff 	ands.w	r2, r2, #255	; 0xff
 800025c:	d1f6      	bne.n	800024c <crc_check+0x28>
 800025e:	e7e7      	b.n	8000230 <crc_check+0xc>
 8000260:	20000530 	.word	0x20000530
 8000264:	2000025e 	.word	0x2000025e

08000268 <CC2520_GPIO_Config>:
 8000268:	4a02      	ldr	r2, [pc, #8]	; (8000274 <CC2520_GPIO_Config+0xc>)
 800026a:	68d3      	ldr	r3, [r2, #12]
 800026c:	f443 6380 	orr.w	r3, r3, #1024	; 0x400
 8000270:	60d3      	str	r3, [r2, #12]
 8000272:	4770      	bx	lr
 8000274:	40011000 	.word	0x40011000

08000278 <CC2520_RxPacket>:
 8000278:	b510      	push	{r4, lr}
 800027a:	f44f 5180 	mov.w	r1, #4096	; 0x1000
 800027e:	481b      	ldr	r0, [pc, #108]	; (80002ec <CC2520_RxPacket+0x74>)
 8000280:	f001 feb6 	bl	8001ff0 <HAL_GPIO_ReadPin>
 8000284:	bb68      	cbnz	r0, 80002e2 <CC2520_RxPacket+0x6a>
 8000286:	2101      	movs	r1, #1
 8000288:	4819      	ldr	r0, [pc, #100]	; (80002f0 <CC2520_RxPacket+0x78>)
 800028a:	f001 feb1 	bl	8001ff0 <HAL_GPIO_ReadPin>
 800028e:	1c04      	adds	r4, r0, #0
 8000290:	bf18      	it	ne
 8000292:	2401      	movne	r4, #1
 8000294:	f44f 5180 	mov.w	r1, #4096	; 0x1000
 8000298:	4814      	ldr	r0, [pc, #80]	; (80002ec <CC2520_RxPacket+0x74>)
 800029a:	f001 fea9 	bl	8001ff0 <HAL_GPIO_ReadPin>
 800029e:	b930      	cbnz	r0, 80002ae <CC2520_RxPacket+0x36>
 80002a0:	2101      	movs	r1, #1
 80002a2:	4813      	ldr	r0, [pc, #76]	; (80002f0 <CC2520_RxPacket+0x78>)
 80002a4:	f001 fea4 	bl	8001ff0 <HAL_GPIO_ReadPin>
 80002a8:	b108      	cbz	r0, 80002ae <CC2520_RxPacket+0x36>
 80002aa:	3401      	adds	r4, #1
 80002ac:	b2e4      	uxtb	r4, r4
 80002ae:	f44f 5180 	mov.w	r1, #4096	; 0x1000
 80002b2:	480e      	ldr	r0, [pc, #56]	; (80002ec <CC2520_RxPacket+0x74>)
 80002b4:	f001 fe9c 	bl	8001ff0 <HAL_GPIO_ReadPin>
 80002b8:	b930      	cbnz	r0, 80002c8 <CC2520_RxPacket+0x50>
 80002ba:	2101      	movs	r1, #1
 80002bc:	480c      	ldr	r0, [pc, #48]	; (80002f0 <CC2520_RxPacket+0x78>)
 80002be:	f001 fe97 	bl	8001ff0 <HAL_GPIO_ReadPin>
 80002c2:	b108      	cbz	r0, 80002c8 <CC2520_RxPacket+0x50>
 80002c4:	3401      	adds	r4, #1
 80002c6:	b2e4      	uxtb	r4, r4
 80002c8:	2c01      	cmp	r4, #1
 80002ca:	d90c      	bls.n	80002e6 <CC2520_RxPacket+0x6e>
 80002cc:	2001      	movs	r0, #1
 80002ce:	f001 fc79 	bl	8001bc4 <HAL_Delay>
 80002d2:	4808      	ldr	r0, [pc, #32]	; (80002f4 <CC2520_RxPacket+0x7c>)
 80002d4:	2201      	movs	r2, #1
 80002d6:	f44f 7100 	mov.w	r1, #512	; 0x200
 80002da:	f001 fe8f 	bl	8001ffc <HAL_GPIO_WritePin>
 80002de:	2001      	movs	r0, #1
 80002e0:	bd10      	pop	{r4, pc}
 80002e2:	2400      	movs	r4, #0
 80002e4:	e7d6      	b.n	8000294 <CC2520_RxPacket+0x1c>
 80002e6:	2000      	movs	r0, #0
 80002e8:	e7fa      	b.n	80002e0 <CC2520_RxPacket+0x68>
 80002ea:	bf00      	nop
 80002ec:	40011000 	.word	0x40011000
 80002f0:	40010c00 	.word	0x40010c00
 80002f4:	40010800 	.word	0x40010800

080002f8 <CC2520_SPI_Init>:
 80002f8:	4a05      	ldr	r2, [pc, #20]	; (8000310 <CC2520_SPI_Init+0x18>)
 80002fa:	68d3      	ldr	r3, [r2, #12]
 80002fc:	f023 0320 	bic.w	r3, r3, #32
 8000300:	60d3      	str	r3, [r2, #12]
 8000302:	f8d2 380c 	ldr.w	r3, [r2, #2060]	; 0x80c
 8000306:	f443 6380 	orr.w	r3, r3, #1024	; 0x400
 800030a:	f8c2 380c 	str.w	r3, [r2, #2060]	; 0x80c
 800030e:	4770      	bx	lr
 8000310:	40010800 	.word	0x40010800

08000314 <SPI_Read>:
 8000314:	b5f8      	push	{r3, r4, r5, r6, r7, lr}
 8000316:	2608      	movs	r6, #8
 8000318:	2400      	movs	r4, #0
 800031a:	4f19      	ldr	r7, [pc, #100]	; (8000380 <SPI_Read+0x6c>)
 800031c:	68fb      	ldr	r3, [r7, #12]
 800031e:	200c      	movs	r0, #12
 8000320:	f043 0320 	orr.w	r3, r3, #32
 8000324:	60fb      	str	r3, [r7, #12]
 8000326:	f000 fd05 	bl	8000d34 <delay_us1>
 800032a:	2180      	movs	r1, #128	; 0x80
 800032c:	4814      	ldr	r0, [pc, #80]	; (8000380 <SPI_Read+0x6c>)
 800032e:	f001 fe5f 	bl	8001ff0 <HAL_GPIO_ReadPin>
 8000332:	0064      	lsls	r4, r4, #1
 8000334:	1c05      	adds	r5, r0, #0
 8000336:	f04f 0180 	mov.w	r1, #128	; 0x80
 800033a:	4811      	ldr	r0, [pc, #68]	; (8000380 <SPI_Read+0x6c>)
 800033c:	bf18      	it	ne
 800033e:	2501      	movne	r5, #1
 8000340:	b2e4      	uxtb	r4, r4
 8000342:	f001 fe55 	bl	8001ff0 <HAL_GPIO_ReadPin>
 8000346:	b100      	cbz	r0, 800034a <SPI_Read+0x36>
 8000348:	3501      	adds	r5, #1
 800034a:	2180      	movs	r1, #128	; 0x80
 800034c:	4638      	mov	r0, r7
 800034e:	f001 fe4f 	bl	8001ff0 <HAL_GPIO_ReadPin>
 8000352:	b108      	cbz	r0, 8000358 <SPI_Read+0x44>
 8000354:	3501      	adds	r5, #1
 8000356:	b2ed      	uxtb	r5, r5
 8000358:	68fb      	ldr	r3, [r7, #12]
 800035a:	2d01      	cmp	r5, #1
 800035c:	f023 0320 	bic.w	r3, r3, #32
 8000360:	60fb      	str	r3, [r7, #12]
 8000362:	f04f 000c 	mov.w	r0, #12
 8000366:	f106 36ff 	add.w	r6, r6, #4294967295
 800036a:	bf88      	it	hi
 800036c:	f044 0401 	orrhi.w	r4, r4, #1
 8000370:	f000 fce0 	bl	8000d34 <delay_us1>
 8000374:	f016 06ff 	ands.w	r6, r6, #255	; 0xff
 8000378:	d1d0      	bne.n	800031c <SPI_Read+0x8>
 800037a:	4620      	mov	r0, r4
 800037c:	bdf8      	pop	{r3, r4, r5, r6, r7, pc}
 800037e:	bf00      	nop
 8000380:	40010800 	.word	0x40010800

08000384 <SPI_Write>:
 8000384:	b570      	push	{r4, r5, r6, lr}
 8000386:	4606      	mov	r6, r0
 8000388:	2508      	movs	r5, #8
 800038a:	4c18      	ldr	r4, [pc, #96]	; (80003ec <SPI_Write+0x68>)
 800038c:	68e3      	ldr	r3, [r4, #12]
 800038e:	0632      	lsls	r2, r6, #24
 8000390:	bf4c      	ite	mi
 8000392:	f043 0340 	orrmi.w	r3, r3, #64	; 0x40
 8000396:	f023 0340 	bicpl.w	r3, r3, #64	; 0x40
 800039a:	60e3      	str	r3, [r4, #12]
 800039c:	68e3      	ldr	r3, [r4, #12]
 800039e:	2048      	movs	r0, #72	; 0x48
 80003a0:	f043 0320 	orr.w	r3, r3, #32
 80003a4:	60e3      	str	r3, [r4, #12]
 80003a6:	f000 fcbb 	bl	8000d20 <delay_init>
 80003aa:	2048      	movs	r0, #72	; 0x48
 80003ac:	f000 fcb8 	bl	8000d20 <delay_init>
 80003b0:	2048      	movs	r0, #72	; 0x48
 80003b2:	f000 fcb5 	bl	8000d20 <delay_init>
 80003b6:	2048      	movs	r0, #72	; 0x48
 80003b8:	f000 fcb2 	bl	8000d20 <delay_init>
 80003bc:	68e3      	ldr	r3, [r4, #12]
 80003be:	2048      	movs	r0, #72	; 0x48
 80003c0:	f023 0320 	bic.w	r3, r3, #32
 80003c4:	60e3      	str	r3, [r4, #12]
 80003c6:	f000 fcab 	bl	8000d20 <delay_init>
 80003ca:	2048      	movs	r0, #72	; 0x48
 80003cc:	f000 fca8 	bl	8000d20 <delay_init>
 80003d0:	2048      	movs	r0, #72	; 0x48
 80003d2:	f000 fca5 	bl	8000d20 <delay_init>
 80003d6:	3d01      	subs	r5, #1
 80003d8:	2048      	movs	r0, #72	; 0x48
 80003da:	0076      	lsls	r6, r6, #1
 80003dc:	f000 fca0 	bl	8000d20 <delay_init>
 80003e0:	f015 05ff 	ands.w	r5, r5, #255	; 0xff
 80003e4:	b2f6      	uxtb	r6, r6
 80003e6:	d1d1      	bne.n	800038c <SPI_Write+0x8>
 80003e8:	bd70      	pop	{r4, r5, r6, pc}
 80003ea:	bf00      	nop
 80003ec:	40010800 	.word	0x40010800

080003f0 <CC2520_WriteReg>:
 80003f0:	b538      	push	{r3, r4, r5, lr}
 80003f2:	460d      	mov	r5, r1
 80003f4:	4c08      	ldr	r4, [pc, #32]	; (8000418 <CC2520_WriteReg+0x28>)
 80003f6:	f040 00c0 	orr.w	r0, r0, #192	; 0xc0
 80003fa:	68e3      	ldr	r3, [r4, #12]
 80003fc:	f423 6380 	bic.w	r3, r3, #1024	; 0x400
 8000400:	60e3      	str	r3, [r4, #12]
 8000402:	f7ff ffbf 	bl	8000384 <SPI_Write>
 8000406:	4628      	mov	r0, r5
 8000408:	f7ff ffbc 	bl	8000384 <SPI_Write>
 800040c:	68e3      	ldr	r3, [r4, #12]
 800040e:	f443 6380 	orr.w	r3, r3, #1024	; 0x400
 8000412:	60e3      	str	r3, [r4, #12]
 8000414:	bd38      	pop	{r3, r4, r5, pc}
 8000416:	bf00      	nop
 8000418:	40011000 	.word	0x40011000

0800041c <CC2520_ReadRAM>:
 800041c:	b538      	push	{r3, r4, r5, lr}
 800041e:	460d      	mov	r5, r1
 8000420:	4c09      	ldr	r4, [pc, #36]	; (8000448 <CC2520_ReadRAM+0x2c>)
 8000422:	f040 0010 	orr.w	r0, r0, #16
 8000426:	68e3      	ldr	r3, [r4, #12]
 8000428:	f423 6380 	bic.w	r3, r3, #1024	; 0x400
 800042c:	60e3      	str	r3, [r4, #12]
 800042e:	f7ff ffa9 	bl	8000384 <SPI_Write>
 8000432:	4628      	mov	r0, r5
 8000434:	f7ff ffa6 	bl	8000384 <SPI_Write>
 8000438:	f7ff ff6c 	bl	8000314 <SPI_Read>
 800043c:	68e3      	ldr	r3, [r4, #12]
 800043e:	f443 6380 	orr.w	r3, r3, #1024	; 0x400
 8000442:	60e3      	str	r3, [r4, #12]
 8000444:	bd38      	pop	{r3, r4, r5, pc}
 8000446:	bf00      	nop
 8000448:	40011000 	.word	0x40011000

0800044c <CC2520_WriteRAM>:
 800044c:	b570      	push	{r4, r5, r6, lr}
 800044e:	460e      	mov	r6, r1
 8000450:	4615      	mov	r5, r2
 8000452:	4c0a      	ldr	r4, [pc, #40]	; (800047c <CC2520_WriteRAM+0x30>)
 8000454:	f040 0020 	orr.w	r0, r0, #32
 8000458:	68e3      	ldr	r3, [r4, #12]
 800045a:	f423 6380 	bic.w	r3, r3, #1024	; 0x400
 800045e:	60e3      	str	r3, [r4, #12]
 8000460:	f7ff ff90 	bl	8000384 <SPI_Write>
 8000464:	4630      	mov	r0, r6
 8000466:	f7ff ff8d 	bl	8000384 <SPI_Write>
 800046a:	4628      	mov	r0, r5
 800046c:	f7ff ff8a 	bl	8000384 <SPI_Write>
 8000470:	68e3      	ldr	r3, [r4, #12]
 8000472:	f443 6380 	orr.w	r3, r3, #1024	; 0x400
 8000476:	60e3      	str	r3, [r4, #12]
 8000478:	bd70      	pop	{r4, r5, r6, pc}
 800047a:	bf00      	nop
 800047c:	40011000 	.word	0x40011000

08000480 <CC2520_IntoActMode_Init>:
 8000480:	b508      	push	{r3, lr}
 8000482:	21f7      	movs	r1, #247	; 0xf7
 8000484:	2030      	movs	r0, #48	; 0x30
 8000486:	f7ff ffb3 	bl	80003f0 <CC2520_WriteReg>
 800048a:	2194      	movs	r1, #148	; 0x94
 800048c:	2031      	movs	r0, #49	; 0x31
 800048e:	f7ff ffaf 	bl	80003f0 <CC2520_WriteReg>
 8000492:	21f8      	movs	r1, #248	; 0xf8
 8000494:	2036      	movs	r0, #54	; 0x36
 8000496:	f7ff ffab 	bl	80003f0 <CC2520_WriteReg>
 800049a:	2285      	movs	r2, #133	; 0x85
 800049c:	2146      	movs	r1, #70	; 0x46
 800049e:	2000      	movs	r0, #0
 80004a0:	f7ff ffd4 	bl	800044c <CC2520_WriteRAM>
 80004a4:	2214      	movs	r2, #20
 80004a6:	2147      	movs	r1, #71	; 0x47
 80004a8:	2000      	movs	r0, #0
 80004aa:	f7ff ffcf 	bl	800044c <CC2520_WriteRAM>
 80004ae:	223f      	movs	r2, #63	; 0x3f
 80004b0:	214a      	movs	r1, #74	; 0x4a
 80004b2:	2000      	movs	r0, #0
 80004b4:	f7ff ffca 	bl	800044c <CC2520_WriteRAM>
 80004b8:	227b      	movs	r2, #123	; 0x7b
 80004ba:	214c      	movs	r1, #76	; 0x4c
 80004bc:	2000      	movs	r0, #0
 80004be:	f7ff ffc5 	bl	800044c <CC2520_WriteRAM>
 80004c2:	222b      	movs	r2, #43	; 0x2b
 80004c4:	214f      	movs	r1, #79	; 0x4f
 80004c6:	2000      	movs	r0, #0
 80004c8:	f7ff ffc0 	bl	800044c <CC2520_WriteRAM>
 80004cc:	2211      	movs	r2, #17
 80004ce:	2153      	movs	r1, #83	; 0x53
 80004d0:	2000      	movs	r0, #0
 80004d2:	f7ff ffbb 	bl	800044c <CC2520_WriteRAM>
 80004d6:	2210      	movs	r2, #16
 80004d8:	2156      	movs	r1, #86	; 0x56
 80004da:	2000      	movs	r0, #0
 80004dc:	f7ff ffb6 	bl	800044c <CC2520_WriteRAM>
 80004e0:	220e      	movs	r2, #14
 80004e2:	2157      	movs	r1, #87	; 0x57
 80004e4:	2000      	movs	r0, #0
 80004e6:	f7ff ffb1 	bl	800044c <CC2520_WriteRAM>
 80004ea:	2203      	movs	r2, #3
 80004ec:	2158      	movs	r1, #88	; 0x58
 80004ee:	2000      	movs	r0, #0
 80004f0:	f7ff ffac 	bl	800044c <CC2520_WriteRAM>
 80004f4:	223f      	movs	r2, #63	; 0x3f
 80004f6:	214a      	movs	r1, #74	; 0x4a
 80004f8:	2000      	movs	r0, #0
 80004fa:	f7ff ffa7 	bl	800044c <CC2520_WriteRAM>
 80004fe:	225a      	movs	r2, #90	; 0x5a
 8000500:	214c      	movs	r1, #76	; 0x4c
 8000502:	2000      	movs	r0, #0
 8000504:	f7ff ffa2 	bl	800044c <CC2520_WriteRAM>
 8000508:	222b      	movs	r2, #43	; 0x2b
 800050a:	214f      	movs	r1, #79	; 0x4f
 800050c:	2000      	movs	r0, #0
 800050e:	f7ff ff9d 	bl	800044c <CC2520_WriteRAM>
 8000512:	2211      	movs	r2, #17
 8000514:	2153      	movs	r1, #83	; 0x53
 8000516:	2000      	movs	r0, #0
 8000518:	f7ff ff98 	bl	800044c <CC2520_WriteRAM>
 800051c:	2210      	movs	r2, #16
 800051e:	2156      	movs	r1, #86	; 0x56
 8000520:	2000      	movs	r0, #0
 8000522:	f7ff ff93 	bl	800044c <CC2520_WriteRAM>
 8000526:	220e      	movs	r2, #14
 8000528:	2157      	movs	r1, #87	; 0x57
 800052a:	2000      	movs	r0, #0
 800052c:	f7ff ff8e 	bl	800044c <CC2520_WriteRAM>
 8000530:	e8bd 4008 	ldmia.w	sp!, {r3, lr}
 8000534:	2203      	movs	r2, #3
 8000536:	2158      	movs	r1, #88	; 0x58
 8000538:	2000      	movs	r0, #0
 800053a:	f7ff bf87 	b.w	800044c <CC2520_WriteRAM>
	...

08000540 <CC2520_Command>:
 8000540:	b510      	push	{r4, lr}
 8000542:	4c06      	ldr	r4, [pc, #24]	; (800055c <CC2520_Command+0x1c>)
 8000544:	68e3      	ldr	r3, [r4, #12]
 8000546:	f423 6380 	bic.w	r3, r3, #1024	; 0x400
 800054a:	60e3      	str	r3, [r4, #12]
 800054c:	f7ff ff1a 	bl	8000384 <SPI_Write>
 8000550:	68e3      	ldr	r3, [r4, #12]
 8000552:	f443 6380 	orr.w	r3, r3, #1024	; 0x400
 8000556:	60e3      	str	r3, [r4, #12]
 8000558:	bd10      	pop	{r4, pc}
 800055a:	bf00      	nop
 800055c:	40011000 	.word	0x40011000

08000560 <CC2520_Init>:
 8000560:	b538      	push	{r3, r4, r5, lr}
 8000562:	4c40      	ldr	r4, [pc, #256]	; (8000664 <CC2520_Init+0x104>)
 8000564:	4605      	mov	r5, r0
 8000566:	68e3      	ldr	r3, [r4, #12]
 8000568:	201e      	movs	r0, #30
 800056a:	f023 0310 	bic.w	r3, r3, #16
 800056e:	60e3      	str	r3, [r4, #12]
 8000570:	f001 fb28 	bl	8001bc4 <HAL_Delay>
 8000574:	68e3      	ldr	r3, [r4, #12]
 8000576:	f5a4 6400 	sub.w	r4, r4, #2048	; 0x800
 800057a:	f043 0310 	orr.w	r3, r3, #16
 800057e:	f8c4 380c 	str.w	r3, [r4, #2060]	; 0x80c
 8000582:	68e3      	ldr	r3, [r4, #12]
 8000584:	200a      	movs	r0, #10
 8000586:	f023 0310 	bic.w	r3, r3, #16
 800058a:	60e3      	str	r3, [r4, #12]
 800058c:	f001 fb1a 	bl	8001bc4 <HAL_Delay>
 8000590:	68e3      	ldr	r3, [r4, #12]
 8000592:	200a      	movs	r0, #10
 8000594:	f043 0310 	orr.w	r3, r3, #16
 8000598:	60e3      	str	r3, [r4, #12]
 800059a:	4c33      	ldr	r4, [pc, #204]	; (8000668 <CC2520_Init+0x108>)
 800059c:	f001 fb12 	bl	8001bc4 <HAL_Delay>
 80005a0:	2040      	movs	r0, #64	; 0x40
 80005a2:	f7ff ffcd 	bl	8000540 <CC2520_Command>
 80005a6:	7822      	ldrb	r2, [r4, #0]
 80005a8:	21f2      	movs	r1, #242	; 0xf2
 80005aa:	2003      	movs	r0, #3
 80005ac:	f7ff ff4e 	bl	800044c <CC2520_WriteRAM>
 80005b0:	7862      	ldrb	r2, [r4, #1]
 80005b2:	21f3      	movs	r1, #243	; 0xf3
 80005b4:	4c2d      	ldr	r4, [pc, #180]	; (800066c <CC2520_Init+0x10c>)
 80005b6:	2003      	movs	r0, #3
 80005b8:	f7ff ff48 	bl	800044c <CC2520_WriteRAM>
 80005bc:	21f2      	movs	r1, #242	; 0xf2
 80005be:	2003      	movs	r0, #3
 80005c0:	f7ff ff2c 	bl	800041c <CC2520_ReadRAM>
 80005c4:	7822      	ldrb	r2, [r4, #0]
 80005c6:	21ea      	movs	r1, #234	; 0xea
 80005c8:	2003      	movs	r0, #3
 80005ca:	f7ff ff3f 	bl	800044c <CC2520_WriteRAM>
 80005ce:	7862      	ldrb	r2, [r4, #1]
 80005d0:	21eb      	movs	r1, #235	; 0xeb
 80005d2:	2003      	movs	r0, #3
 80005d4:	f7ff ff3a 	bl	800044c <CC2520_WriteRAM>
 80005d8:	78a2      	ldrb	r2, [r4, #2]
 80005da:	21ec      	movs	r1, #236	; 0xec
 80005dc:	2003      	movs	r0, #3
 80005de:	f7ff ff35 	bl	800044c <CC2520_WriteRAM>
 80005e2:	78e2      	ldrb	r2, [r4, #3]
 80005e4:	21ed      	movs	r1, #237	; 0xed
 80005e6:	2003      	movs	r0, #3
 80005e8:	f7ff ff30 	bl	800044c <CC2520_WriteRAM>
 80005ec:	7922      	ldrb	r2, [r4, #4]
 80005ee:	21ee      	movs	r1, #238	; 0xee
 80005f0:	2003      	movs	r0, #3
 80005f2:	f7ff ff2b 	bl	800044c <CC2520_WriteRAM>
 80005f6:	7962      	ldrb	r2, [r4, #5]
 80005f8:	21ef      	movs	r1, #239	; 0xef
 80005fa:	2003      	movs	r0, #3
 80005fc:	f7ff ff26 	bl	800044c <CC2520_WriteRAM>
 8000600:	79a2      	ldrb	r2, [r4, #6]
 8000602:	21f0      	movs	r1, #240	; 0xf0
 8000604:	2003      	movs	r0, #3
 8000606:	f7ff ff21 	bl	800044c <CC2520_WriteRAM>
 800060a:	79e2      	ldrb	r2, [r4, #7]
 800060c:	21f1      	movs	r1, #241	; 0xf1
 800060e:	2003      	movs	r0, #3
 8000610:	f7ff ff1c 	bl	800044c <CC2520_WriteRAM>
 8000614:	21ea      	movs	r1, #234	; 0xea
 8000616:	2003      	movs	r0, #3
 8000618:	f7ff ff00 	bl	800041c <CC2520_ReadRAM>
 800061c:	210d      	movs	r1, #13
 800061e:	2000      	movs	r0, #0
 8000620:	f7ff fee6 	bl	80003f0 <CC2520_WriteReg>
 8000624:	212a      	movs	r1, #42	; 0x2a
 8000626:	2020      	movs	r0, #32
 8000628:	f7ff fee2 	bl	80003f0 <CC2520_WriteReg>
 800062c:	2127      	movs	r1, #39	; 0x27
 800062e:	2021      	movs	r0, #33	; 0x21
 8000630:	f7ff fede 	bl	80003f0 <CC2520_WriteReg>
 8000634:	213f      	movs	r1, #63	; 0x3f
 8000636:	2028      	movs	r0, #40	; 0x28
 8000638:	f7ff feda 	bl	80003f0 <CC2520_WriteReg>
 800063c:	4629      	mov	r1, r5
 800063e:	202e      	movs	r0, #46	; 0x2e
 8000640:	f7ff fed6 	bl	80003f0 <CC2520_WriteReg>
 8000644:	4b0a      	ldr	r3, [pc, #40]	; (8000670 <CC2520_Init+0x110>)
 8000646:	2100      	movs	r1, #0
 8000648:	2035      	movs	r0, #53	; 0x35
 800064a:	701d      	strb	r5, [r3, #0]
 800064c:	f7ff fed0 	bl	80003f0 <CC2520_WriteReg>
 8000650:	2047      	movs	r0, #71	; 0x47
 8000652:	f7ff ff75 	bl	8000540 <CC2520_Command>
 8000656:	2048      	movs	r0, #72	; 0x48
 8000658:	f7ff ff72 	bl	8000540 <CC2520_Command>
 800065c:	e8bd 4038 	ldmia.w	sp!, {r3, r4, r5, lr}
 8000660:	f7ff bf0e 	b.w	8000480 <CC2520_IntoActMode_Init>
 8000664:	40011000 	.word	0x40011000
 8000668:	20000008 	.word	0x20000008
 800066c:	20000000 	.word	0x20000000
 8000670:	20000531 	.word	0x20000531

08000674 <CC2520_SetRxMode>:
 8000674:	b508      	push	{r3, lr}
 8000676:	2045      	movs	r0, #69	; 0x45
 8000678:	f7ff ff62 	bl	8000540 <CC2520_Command>
 800067c:	e8bd 4008 	ldmia.w	sp!, {r3, lr}
 8000680:	2042      	movs	r0, #66	; 0x42
 8000682:	f7ff bf5d 	b.w	8000540 <CC2520_Command>
	...

08000688 <CC2520_TxPacket>:
 8000688:	b570      	push	{r4, r5, r6, lr}
 800068a:	2045      	movs	r0, #69	; 0x45
 800068c:	f7ff ff58 	bl	8000540 <CC2520_Command>
 8000690:	2043      	movs	r0, #67	; 0x43
 8000692:	f7ff ff55 	bl	8000540 <CC2520_Command>
 8000696:	2003      	movs	r0, #3
 8000698:	f001 fa94 	bl	8001bc4 <HAL_Delay>
 800069c:	25c8      	movs	r5, #200	; 0xc8
 800069e:	4e14      	ldr	r6, [pc, #80]	; (80006f0 <CC2520_TxPacket+0x68>)
 80006a0:	f44f 5180 	mov.w	r1, #4096	; 0x1000
 80006a4:	4630      	mov	r0, r6
 80006a6:	f001 fca3 	bl	8001ff0 <HAL_GPIO_ReadPin>
 80006aa:	f44f 5180 	mov.w	r1, #4096	; 0x1000
 80006ae:	1c04      	adds	r4, r0, #0
 80006b0:	4630      	mov	r0, r6
 80006b2:	bf18      	it	ne
 80006b4:	2401      	movne	r4, #1
 80006b6:	f001 fc9b 	bl	8001ff0 <HAL_GPIO_ReadPin>
 80006ba:	b100      	cbz	r0, 80006be <CC2520_TxPacket+0x36>
 80006bc:	3401      	adds	r4, #1
 80006be:	f44f 5180 	mov.w	r1, #4096	; 0x1000
 80006c2:	4630      	mov	r0, r6
 80006c4:	f001 fc94 	bl	8001ff0 <HAL_GPIO_ReadPin>
 80006c8:	b108      	cbz	r0, 80006ce <CC2520_TxPacket+0x46>
 80006ca:	3401      	adds	r4, #1
 80006cc:	b2e4      	uxtb	r4, r4
 80006ce:	2c01      	cmp	r4, #1
 80006d0:	d806      	bhi.n	80006e0 <CC2520_TxPacket+0x58>
 80006d2:	3d01      	subs	r5, #1
 80006d4:	d1e4      	bne.n	80006a0 <CC2520_TxPacket+0x18>
 80006d6:	4a07      	ldr	r2, [pc, #28]	; (80006f4 <CC2520_TxPacket+0x6c>)
 80006d8:	7813      	ldrb	r3, [r2, #0]
 80006da:	3301      	adds	r3, #1
 80006dc:	7013      	strb	r3, [r2, #0]
 80006de:	bd70      	pop	{r4, r5, r6, pc}
 80006e0:	2201      	movs	r2, #1
 80006e2:	e8bd 4070 	ldmia.w	sp!, {r4, r5, r6, lr}
 80006e6:	f44f 7100 	mov.w	r1, #512	; 0x200
 80006ea:	4803      	ldr	r0, [pc, #12]	; (80006f8 <CC2520_TxPacket+0x70>)
 80006ec:	f001 bc86 	b.w	8001ffc <HAL_GPIO_WritePin>
 80006f0:	40011000 	.word	0x40011000
 80006f4:	20000047 	.word	0x20000047
 80006f8:	40010800 	.word	0x40010800

080006fc <CC2520_WriteTXFIFO>:
 80006fc:	b5f8      	push	{r3, r4, r5, r6, r7, lr}
 80006fe:	4605      	mov	r5, r0
 8000700:	4c17      	ldr	r4, [pc, #92]	; (8000760 <CC2520_WriteTXFIFO+0x64>)
 8000702:	2048      	movs	r0, #72	; 0x48
 8000704:	f7ff ff1c 	bl	8000540 <CC2520_Command>
 8000708:	68e3      	ldr	r3, [r4, #12]
 800070a:	203a      	movs	r0, #58	; 0x3a
 800070c:	f423 6380 	bic.w	r3, r3, #1024	; 0x400
 8000710:	60e3      	str	r3, [r4, #12]
 8000712:	f7ff fe37 	bl	8000384 <SPI_Write>
 8000716:	f105 0019 	add.w	r0, r5, #25
 800071a:	b2c0      	uxtb	r0, r0
 800071c:	f7ff fe32 	bl	8000384 <SPI_Write>
 8000720:	2601      	movs	r6, #1
 8000722:	4f10      	ldr	r7, [pc, #64]	; (8000764 <CC2520_WriteTXFIFO+0x68>)
 8000724:	5db8      	ldrb	r0, [r7, r6]
 8000726:	3601      	adds	r6, #1
 8000728:	f7ff fe2c 	bl	8000384 <SPI_Write>
 800072c:	2e18      	cmp	r6, #24
 800072e:	d1f9      	bne.n	8000724 <CC2520_WriteTXFIFO+0x28>
 8000730:	4e0d      	ldr	r6, [pc, #52]	; (8000768 <CC2520_WriteTXFIFO+0x6c>)
 8000732:	4435      	add	r5, r6
 8000734:	42ae      	cmp	r6, r5
 8000736:	d10e      	bne.n	8000756 <CC2520_WriteTXFIFO+0x5a>
 8000738:	2055      	movs	r0, #85	; 0x55
 800073a:	f7ff fe23 	bl	8000384 <SPI_Write>
 800073e:	20aa      	movs	r0, #170	; 0xaa
 8000740:	f7ff fe20 	bl	8000384 <SPI_Write>
 8000744:	68e3      	ldr	r3, [r4, #12]
 8000746:	2028      	movs	r0, #40	; 0x28
 8000748:	f443 6380 	orr.w	r3, r3, #1024	; 0x400
 800074c:	60e3      	str	r3, [r4, #12]
 800074e:	e8bd 40f8 	ldmia.w	sp!, {r3, r4, r5, r6, r7, lr}
 8000752:	f000 baef 	b.w	8000d34 <delay_us1>
 8000756:	f816 0f01 	ldrb.w	r0, [r6, #1]!
 800075a:	f7ff fe13 	bl	8000384 <SPI_Write>
 800075e:	e7e9      	b.n	8000734 <CC2520_WriteTXFIFO+0x38>
 8000760:	40011000 	.word	0x40011000
 8000764:	08002ed8 	.word	0x08002ed8
 8000768:	20000537 	.word	0x20000537

0800076c <CC2520_ReadRXFIFO>:
 800076c:	b5f8      	push	{r3, r4, r5, r6, r7, lr}
 800076e:	4d14      	ldr	r5, [pc, #80]	; (80007c0 <CC2520_ReadRXFIFO+0x54>)
 8000770:	2030      	movs	r0, #48	; 0x30
 8000772:	68eb      	ldr	r3, [r5, #12]
 8000774:	4e13      	ldr	r6, [pc, #76]	; (80007c4 <CC2520_ReadRXFIFO+0x58>)
 8000776:	f423 6380 	bic.w	r3, r3, #1024	; 0x400
 800077a:	60eb      	str	r3, [r5, #12]
 800077c:	f7ff fe02 	bl	8000384 <SPI_Write>
 8000780:	f7ff fdc8 	bl	8000314 <SPI_Read>
 8000784:	f010 0f80 	tst.w	r0, #128	; 0x80
 8000788:	bf1c      	itt	ne
 800078a:	237f      	movne	r3, #127	; 0x7f
 800078c:	7033      	strbne	r3, [r6, #0]
 800078e:	f04f 0300 	mov.w	r3, #0
 8000792:	bf08      	it	eq
 8000794:	7030      	strbeq	r0, [r6, #0]
 8000796:	7832      	ldrb	r2, [r6, #0]
 8000798:	b2dc      	uxtb	r4, r3
 800079a:	42a2      	cmp	r2, r4
 800079c:	f103 0701 	add.w	r7, r3, #1
 80007a0:	d808      	bhi.n	80007b4 <CC2520_ReadRXFIFO+0x48>
 80007a2:	68eb      	ldr	r3, [r5, #12]
 80007a4:	2047      	movs	r0, #71	; 0x47
 80007a6:	f443 6380 	orr.w	r3, r3, #1024	; 0x400
 80007aa:	60eb      	str	r3, [r5, #12]
 80007ac:	e8bd 40f8 	ldmia.w	sp!, {r3, r4, r5, r6, r7, lr}
 80007b0:	f7ff bec6 	b.w	8000540 <CC2520_Command>
 80007b4:	f7ff fdae 	bl	8000314 <SPI_Read>
 80007b8:	1933      	adds	r3, r6, r4
 80007ba:	7058      	strb	r0, [r3, #1]
 80007bc:	463b      	mov	r3, r7
 80007be:	e7ea      	b.n	8000796 <CC2520_ReadRXFIFO+0x2a>
 80007c0:	40011000 	.word	0x40011000
 80007c4:	20000538 	.word	0x20000538

080007c8 <temp_send>:
 80007c8:	e92d 43f8 	stmdb	sp!, {r3, r4, r5, r6, r7, r8, r9, lr}
 80007cc:	2314      	movs	r3, #20
 80007ce:	4c54      	ldr	r4, [pc, #336]	; (8000920 <temp_send+0x158>)
 80007d0:	f04f 0901 	mov.w	r9, #1
 80007d4:	7023      	strb	r3, [r4, #0]
 80007d6:	2319      	movs	r3, #25
 80007d8:	7063      	strb	r3, [r4, #1]
 80007da:	2305      	movs	r3, #5
 80007dc:	70a3      	strb	r3, [r4, #2]
 80007de:	2324      	movs	r3, #36	; 0x24
 80007e0:	70e3      	strb	r3, [r4, #3]
 80007e2:	2300      	movs	r3, #0
 80007e4:	7123      	strb	r3, [r4, #4]
 80007e6:	2303      	movs	r3, #3
 80007e8:	7163      	strb	r3, [r4, #5]
 80007ea:	2306      	movs	r3, #6
 80007ec:	71e3      	strb	r3, [r4, #7]
 80007ee:	23be      	movs	r3, #190	; 0xbe
 80007f0:	7263      	strb	r3, [r4, #9]
 80007f2:	2338      	movs	r3, #56	; 0x38
 80007f4:	72a3      	strb	r3, [r4, #10]
 80007f6:	2302      	movs	r3, #2
 80007f8:	2540      	movs	r5, #64	; 0x40
 80007fa:	72e3      	strb	r3, [r4, #11]
 80007fc:	232a      	movs	r3, #42	; 0x2a
 80007fe:	f8df 813c 	ldr.w	r8, [pc, #316]	; 800093c <temp_send+0x174>
 8000802:	4f48      	ldr	r7, [pc, #288]	; (8000924 <temp_send+0x15c>)
 8000804:	210e      	movs	r1, #14
 8000806:	4620      	mov	r0, r4
 8000808:	f884 9006 	strb.w	r9, [r4, #6]
 800080c:	f884 9008 	strb.w	r9, [r4, #8]
 8000810:	7323      	strb	r3, [r4, #12]
 8000812:	7365      	strb	r5, [r4, #13]
 8000814:	f8c8 4000 	str.w	r4, [r8]
 8000818:	4e43      	ldr	r6, [pc, #268]	; (8000928 <temp_send+0x160>)
 800081a:	f7ff fd03 	bl	8000224 <crc_check>
 800081e:	783b      	ldrb	r3, [r7, #0]
 8000820:	4628      	mov	r0, r5
 8000822:	73a3      	strb	r3, [r4, #14]
 8000824:	7833      	ldrb	r3, [r6, #0]
 8000826:	4d41      	ldr	r5, [pc, #260]	; (800092c <temp_send+0x164>)
 8000828:	73e3      	strb	r3, [r4, #15]
 800082a:	f7ff fe89 	bl	8000540 <CC2520_Command>
 800082e:	2048      	movs	r0, #72	; 0x48
 8000830:	f000 fa76 	bl	8000d20 <delay_init>
 8000834:	2048      	movs	r0, #72	; 0x48
 8000836:	f000 fa73 	bl	8000d20 <delay_init>
 800083a:	2048      	movs	r0, #72	; 0x48
 800083c:	f000 fa70 	bl	8000d20 <delay_init>
 8000840:	68eb      	ldr	r3, [r5, #12]
 8000842:	4648      	mov	r0, r9
 8000844:	f423 6380 	bic.w	r3, r3, #1024	; 0x400
 8000848:	60eb      	str	r3, [r5, #12]
 800084a:	f001 f9bb 	bl	8001bc4 <HAL_Delay>
 800084e:	f8df 90e8 	ldr.w	r9, [pc, #232]	; 8000938 <temp_send+0x170>
 8000852:	2180      	movs	r1, #128	; 0x80
 8000854:	4648      	mov	r0, r9
 8000856:	f001 fbcb 	bl	8001ff0 <HAL_GPIO_ReadPin>
 800085a:	2800      	cmp	r0, #0
 800085c:	d0f9      	beq.n	8000852 <temp_send+0x8a>
 800085e:	68eb      	ldr	r3, [r5, #12]
 8000860:	2010      	movs	r0, #16
 8000862:	f443 6380 	orr.w	r3, r3, #1024	; 0x400
 8000866:	60eb      	str	r3, [r5, #12]
 8000868:	f7ff ff48 	bl	80006fc <CC2520_WriteTXFIFO>
 800086c:	f7ff ff0c 	bl	8000688 <CC2520_TxPacket>
 8000870:	f7ff ff00 	bl	8000674 <CC2520_SetRxMode>
 8000874:	4b2e      	ldr	r3, [pc, #184]	; (8000930 <temp_send+0x168>)
 8000876:	2200      	movs	r2, #0
 8000878:	4699      	mov	r9, r3
 800087a:	601a      	str	r2, [r3, #0]
 800087c:	f8d9 3000 	ldr.w	r3, [r9]
 8000880:	2b31      	cmp	r3, #49	; 0x31
 8000882:	d902      	bls.n	800088a <temp_send+0xc2>
 8000884:	f04f 0900 	mov.w	r9, #0
 8000888:	e007      	b.n	800089a <temp_send+0xd2>
 800088a:	f7ff fcf5 	bl	8000278 <CC2520_RxPacket>
 800088e:	2800      	cmp	r0, #0
 8000890:	d0f4      	beq.n	800087c <temp_send+0xb4>
 8000892:	f7ff ff6b 	bl	800076c <CC2520_ReadRXFIFO>
 8000896:	f04f 0901 	mov.w	r9, #1
 800089a:	2046      	movs	r0, #70	; 0x46
 800089c:	f7ff fe50 	bl	8000540 <CC2520_Command>
 80008a0:	f1b9 0f00 	cmp.w	r9, #0
 80008a4:	d039      	beq.n	800091a <temp_send+0x152>
 80008a6:	4b23      	ldr	r3, [pc, #140]	; (8000934 <temp_send+0x16c>)
 80008a8:	f103 0210 	add.w	r2, r3, #16
 80008ac:	7e59      	ldrb	r1, [r3, #25]
 80008ae:	f803 1f01 	strb.w	r1, [r3, #1]!
 80008b2:	4293      	cmp	r3, r2
 80008b4:	d1fa      	bne.n	80008ac <temp_send+0xe4>
 80008b6:	2201      	movs	r2, #1
 80008b8:	f44f 7100 	mov.w	r1, #512	; 0x200
 80008bc:	481e      	ldr	r0, [pc, #120]	; (8000938 <temp_send+0x170>)
 80008be:	f001 fb9d 	bl	8001ffc <HAL_GPIO_WritePin>
 80008c2:	210e      	movs	r1, #14
 80008c4:	4816      	ldr	r0, [pc, #88]	; (8000920 <temp_send+0x158>)
 80008c6:	f8c8 4000 	str.w	r4, [r8]
 80008ca:	f7ff fcab 	bl	8000224 <crc_check>
 80008ce:	7ba2      	ldrb	r2, [r4, #14]
 80008d0:	783b      	ldrb	r3, [r7, #0]
 80008d2:	429a      	cmp	r2, r3
 80008d4:	d121      	bne.n	800091a <temp_send+0x152>
 80008d6:	7be2      	ldrb	r2, [r4, #15]
 80008d8:	7833      	ldrb	r3, [r6, #0]
 80008da:	429a      	cmp	r2, r3
 80008dc:	d11d      	bne.n	800091a <temp_send+0x152>
 80008de:	79a3      	ldrb	r3, [r4, #6]
 80008e0:	2b03      	cmp	r3, #3
 80008e2:	d11a      	bne.n	800091a <temp_send+0x152>
 80008e4:	2050      	movs	r0, #80	; 0x50
 80008e6:	f001 f96d 	bl	8001bc4 <HAL_Delay>
 80008ea:	2040      	movs	r0, #64	; 0x40
 80008ec:	f7ff fe28 	bl	8000540 <CC2520_Command>
 80008f0:	68eb      	ldr	r3, [r5, #12]
 80008f2:	200a      	movs	r0, #10
 80008f4:	f423 6380 	bic.w	r3, r3, #1024	; 0x400
 80008f8:	60eb      	str	r3, [r5, #12]
 80008fa:	f001 f963 	bl	8001bc4 <HAL_Delay>
 80008fe:	68eb      	ldr	r3, [r5, #12]
 8000900:	2010      	movs	r0, #16
 8000902:	f443 6380 	orr.w	r3, r3, #1024	; 0x400
 8000906:	60eb      	str	r3, [r5, #12]
 8000908:	f7ff fef8 	bl	80006fc <CC2520_WriteTXFIFO>
 800090c:	f7ff febc 	bl	8000688 <CC2520_TxPacket>
 8000910:	e8bd 43f8 	ldmia.w	sp!, {r3, r4, r5, r6, r7, r8, r9, lr}
 8000914:	2046      	movs	r0, #70	; 0x46
 8000916:	f7ff be13 	b.w	8000540 <CC2520_Command>
 800091a:	e8bd 83f8 	ldmia.w	sp!, {r3, r4, r5, r6, r7, r8, r9, pc}
 800091e:	bf00      	nop
 8000920:	20000538 	.word	0x20000538
 8000924:	20000530 	.word	0x20000530
 8000928:	2000025e 	.word	0x2000025e
 800092c:	40011000 	.word	0x40011000
 8000930:	20000364 	.word	0x20000364
 8000934:	20000537 	.word	0x20000537
 8000938:	40010800 	.word	0x40010800
 800093c:	20000154 	.word	0x20000154

08000940 <LCD_DA>:
 8000940:	4b25      	ldr	r3, [pc, #148]	; (80009d8 <LCD_DA+0x98>)
 8000942:	f010 0f01 	tst.w	r0, #1
 8000946:	68da      	ldr	r2, [r3, #12]
 8000948:	bf14      	ite	ne
 800094a:	f442 5280 	orrne.w	r2, r2, #4096	; 0x1000
 800094e:	f422 5280 	biceq.w	r2, r2, #4096	; 0x1000
 8000952:	60da      	str	r2, [r3, #12]
 8000954:	4b20      	ldr	r3, [pc, #128]	; (80009d8 <LCD_DA+0x98>)
 8000956:	f010 0f02 	tst.w	r0, #2
 800095a:	68da      	ldr	r2, [r3, #12]
 800095c:	bf14      	ite	ne
 800095e:	f442 5200 	orrne.w	r2, r2, #8192	; 0x2000
 8000962:	f422 5200 	biceq.w	r2, r2, #8192	; 0x2000
 8000966:	60da      	str	r2, [r3, #12]
 8000968:	4b1b      	ldr	r3, [pc, #108]	; (80009d8 <LCD_DA+0x98>)
 800096a:	f010 0f04 	tst.w	r0, #4
 800096e:	68da      	ldr	r2, [r3, #12]
 8000970:	bf14      	ite	ne
 8000972:	f442 4280 	orrne.w	r2, r2, #16384	; 0x4000
 8000976:	f422 4280 	biceq.w	r2, r2, #16384	; 0x4000
 800097a:	60da      	str	r2, [r3, #12]
 800097c:	4b16      	ldr	r3, [pc, #88]	; (80009d8 <LCD_DA+0x98>)
 800097e:	f010 0f08 	tst.w	r0, #8
 8000982:	68da      	ldr	r2, [r3, #12]
 8000984:	bf14      	ite	ne
 8000986:	f442 4200 	orrne.w	r2, r2, #32768	; 0x8000
 800098a:	f422 4200 	biceq.w	r2, r2, #32768	; 0x8000
 800098e:	60da      	str	r2, [r3, #12]
 8000990:	4b12      	ldr	r3, [pc, #72]	; (80009dc <LCD_DA+0x9c>)
 8000992:	f010 0f10 	tst.w	r0, #16
 8000996:	68da      	ldr	r2, [r3, #12]
 8000998:	bf14      	ite	ne
 800099a:	f042 0240 	orrne.w	r2, r2, #64	; 0x40
 800099e:	f022 0240 	biceq.w	r2, r2, #64	; 0x40
 80009a2:	60da      	str	r2, [r3, #12]
 80009a4:	68da      	ldr	r2, [r3, #12]
 80009a6:	0681      	lsls	r1, r0, #26
 80009a8:	bf4c      	ite	mi
 80009aa:	f042 0280 	orrmi.w	r2, r2, #128	; 0x80
 80009ae:	f022 0280 	bicpl.w	r2, r2, #128	; 0x80
 80009b2:	60da      	str	r2, [r3, #12]
 80009b4:	68da      	ldr	r2, [r3, #12]
 80009b6:	0641      	lsls	r1, r0, #25
 80009b8:	bf4c      	ite	mi
 80009ba:	f442 7280 	orrmi.w	r2, r2, #256	; 0x100
 80009be:	f422 7280 	bicpl.w	r2, r2, #256	; 0x100
 80009c2:	60da      	str	r2, [r3, #12]
 80009c4:	68da      	ldr	r2, [r3, #12]
 80009c6:	0601      	lsls	r1, r0, #24
 80009c8:	bf4c      	ite	mi
 80009ca:	f442 7200 	orrmi.w	r2, r2, #512	; 0x200
 80009ce:	f422 7200 	bicpl.w	r2, r2, #512	; 0x200
 80009d2:	60da      	str	r2, [r3, #12]
 80009d4:	4770      	bx	lr
 80009d6:	bf00      	nop
 80009d8:	40010c00 	.word	0x40010c00
 80009dc:	40011000 	.word	0x40011000

080009e0 <vSdCmd>:
 80009e0:	b510      	push	{r4, lr}
 80009e2:	4c0d      	ldr	r4, [pc, #52]	; (8000a18 <vSdCmd+0x38>)
 80009e4:	68e3      	ldr	r3, [r4, #12]
 80009e6:	f423 7380 	bic.w	r3, r3, #256	; 0x100
 80009ea:	60e3      	str	r3, [r4, #12]
 80009ec:	f7ff ffa8 	bl	8000940 <LCD_DA>
 80009f0:	4b0a      	ldr	r3, [pc, #40]	; (8000a1c <vSdCmd+0x3c>)
 80009f2:	68da      	ldr	r2, [r3, #12]
 80009f4:	f422 7200 	bic.w	r2, r2, #512	; 0x200
 80009f8:	60da      	str	r2, [r3, #12]
 80009fa:	68e2      	ldr	r2, [r4, #12]
 80009fc:	f422 4200 	bic.w	r2, r2, #32768	; 0x8000
 8000a00:	60e2      	str	r2, [r4, #12]
 8000a02:	bf00      	nop
 8000a04:	68e2      	ldr	r2, [r4, #12]
 8000a06:	f442 4200 	orr.w	r2, r2, #32768	; 0x8000
 8000a0a:	60e2      	str	r2, [r4, #12]
 8000a0c:	68da      	ldr	r2, [r3, #12]
 8000a0e:	f442 7200 	orr.w	r2, r2, #512	; 0x200
 8000a12:	60da      	str	r2, [r3, #12]
 8000a14:	bd10      	pop	{r4, pc}
 8000a16:	bf00      	nop
 8000a18:	40010800 	.word	0x40010800
 8000a1c:	40010c00 	.word	0x40010c00

08000a20 <vSdData>:
 8000a20:	b510      	push	{r4, lr}
 8000a22:	4c0d      	ldr	r4, [pc, #52]	; (8000a58 <vSdData+0x38>)
 8000a24:	68e3      	ldr	r3, [r4, #12]
 8000a26:	f443 7380 	orr.w	r3, r3, #256	; 0x100
 8000a2a:	60e3      	str	r3, [r4, #12]
 8000a2c:	f7ff ff88 	bl	8000940 <LCD_DA>
 8000a30:	4b0a      	ldr	r3, [pc, #40]	; (8000a5c <vSdData+0x3c>)
 8000a32:	68da      	ldr	r2, [r3, #12]
 8000a34:	f422 7200 	bic.w	r2, r2, #512	; 0x200
 8000a38:	60da      	str	r2, [r3, #12]
 8000a3a:	68e2      	ldr	r2, [r4, #12]
 8000a3c:	f422 4200 	bic.w	r2, r2, #32768	; 0x8000
 8000a40:	60e2      	str	r2, [r4, #12]
 8000a42:	bf00      	nop
 8000a44:	68e2      	ldr	r2, [r4, #12]
 8000a46:	f442 4200 	orr.w	r2, r2, #32768	; 0x8000
 8000a4a:	60e2      	str	r2, [r4, #12]
 8000a4c:	68da      	ldr	r2, [r3, #12]
 8000a4e:	f442 7200 	orr.w	r2, r2, #512	; 0x200
 8000a52:	60da      	str	r2, [r3, #12]
 8000a54:	bd10      	pop	{r4, pc}
 8000a56:	bf00      	nop
 8000a58:	40010800 	.word	0x40010800
 8000a5c:	40010c00 	.word	0x40010c00

08000a60 <data_out_16>:
 8000a60:	b510      	push	{r4, lr}
 8000a62:	4604      	mov	r4, r0
 8000a64:	f3c0 2007 	ubfx	r0, r0, #8, #8
 8000a68:	f7ff ffda 	bl	8000a20 <vSdData>
 8000a6c:	b2e0      	uxtb	r0, r4
 8000a6e:	e8bd 4010 	ldmia.w	sp!, {r4, lr}
 8000a72:	f7ff bfd5 	b.w	8000a20 <vSdData>

08000a76 <lcd_address>:
 8000a76:	b5f8      	push	{r3, r4, r5, r6, r7, lr}
 8000a78:	4607      	mov	r7, r0
 8000a7a:	460e      	mov	r6, r1
 8000a7c:	3a01      	subs	r2, #1
 8000a7e:	1815      	adds	r5, r2, r0
 8000a80:	3b01      	subs	r3, #1
 8000a82:	202a      	movs	r0, #42	; 0x2a
 8000a84:	185c      	adds	r4, r3, r1
 8000a86:	f7ff ffab 	bl	80009e0 <vSdCmd>
 8000a8a:	4638      	mov	r0, r7
 8000a8c:	f7ff ffe8 	bl	8000a60 <data_out_16>
 8000a90:	4628      	mov	r0, r5
 8000a92:	f7ff ffe5 	bl	8000a60 <data_out_16>
 8000a96:	202b      	movs	r0, #43	; 0x2b
 8000a98:	f7ff ffa2 	bl	80009e0 <vSdCmd>
 8000a9c:	4630      	mov	r0, r6
 8000a9e:	f7ff ffdf 	bl	8000a60 <data_out_16>
 8000aa2:	4620      	mov	r0, r4
 8000aa4:	f7ff ffdc 	bl	8000a60 <data_out_16>
 8000aa8:	e8bd 40f8 	ldmia.w	sp!, {r3, r4, r5, r6, r7, lr}
 8000aac:	202c      	movs	r0, #44	; 0x2c
 8000aae:	f7ff bf97 	b.w	80009e0 <vSdCmd>

08000ab2 <TFT_Disp128160>:
 8000ab2:	2100      	movs	r1, #0
 8000ab4:	b570      	push	{r4, r5, r6, lr}
 8000ab6:	4605      	mov	r5, r0
 8000ab8:	2380      	movs	r3, #128	; 0x80
 8000aba:	22a0      	movs	r2, #160	; 0xa0
 8000abc:	4608      	mov	r0, r1
 8000abe:	f7ff ffda 	bl	8000a76 <lcd_address>
 8000ac2:	1cac      	adds	r4, r5, #2
 8000ac4:	f505 4520 	add.w	r5, r5, #40960	; 0xa000
 8000ac8:	3502      	adds	r5, #2
 8000aca:	f504 76a0 	add.w	r6, r4, #320	; 0x140
 8000ace:	f814 0c02 	ldrb.w	r0, [r4, #-2]
 8000ad2:	f7ff ffa5 	bl	8000a20 <vSdData>
 8000ad6:	3402      	adds	r4, #2
 8000ad8:	f814 0c03 	ldrb.w	r0, [r4, #-3]
 8000adc:	f7ff ffa0 	bl	8000a20 <vSdData>
 8000ae0:	42b4      	cmp	r4, r6
 8000ae2:	d1f4      	bne.n	8000ace <TFT_Disp128160+0x1c>
 8000ae4:	42ac      	cmp	r4, r5
 8000ae6:	d1f0      	bne.n	8000aca <TFT_Disp128160+0x18>
 8000ae8:	bd70      	pop	{r4, r5, r6, pc}

08000aea <display_color>:
 8000aea:	2100      	movs	r1, #0
 8000aec:	b570      	push	{r4, r5, r6, lr}
 8000aee:	2380      	movs	r3, #128	; 0x80
 8000af0:	4606      	mov	r6, r0
 8000af2:	22a0      	movs	r2, #160	; 0xa0
 8000af4:	4608      	mov	r0, r1
 8000af6:	f7ff ffbe 	bl	8000a76 <lcd_address>
 8000afa:	2580      	movs	r5, #128	; 0x80
 8000afc:	24a0      	movs	r4, #160	; 0xa0
 8000afe:	4630      	mov	r0, r6
 8000b00:	f7ff ffae 	bl	8000a60 <data_out_16>
 8000b04:	3c01      	subs	r4, #1
 8000b06:	d1fa      	bne.n	8000afe <display_color+0x14>
 8000b08:	3d01      	subs	r5, #1
 8000b0a:	d1f7      	bne.n	8000afc <display_color+0x12>
 8000b0c:	bd70      	pop	{r4, r5, r6, pc}
	...

08000b10 <lcd_init>:
 8000b10:	b510      	push	{r4, lr}
 8000b12:	4c1f      	ldr	r4, [pc, #124]	; (8000b90 <lcd_init+0x80>)
 8000b14:	2014      	movs	r0, #20
 8000b16:	68e3      	ldr	r3, [r4, #12]
 8000b18:	f423 7380 	bic.w	r3, r3, #256	; 0x100
 8000b1c:	60e3      	str	r3, [r4, #12]
 8000b1e:	f001 f851 	bl	8001bc4 <HAL_Delay>
 8000b22:	68e3      	ldr	r3, [r4, #12]
 8000b24:	2050      	movs	r0, #80	; 0x50
 8000b26:	f443 7380 	orr.w	r3, r3, #256	; 0x100
 8000b2a:	60e3      	str	r3, [r4, #12]
 8000b2c:	f001 f84a 	bl	8001bc4 <HAL_Delay>
 8000b30:	2011      	movs	r0, #17
 8000b32:	f7ff ff55 	bl	80009e0 <vSdCmd>
 8000b36:	2026      	movs	r0, #38	; 0x26
 8000b38:	f7ff ff52 	bl	80009e0 <vSdCmd>
 8000b3c:	2004      	movs	r0, #4
 8000b3e:	f7ff ff6f 	bl	8000a20 <vSdData>
 8000b42:	2036      	movs	r0, #54	; 0x36
 8000b44:	f7ff ff4c 	bl	80009e0 <vSdCmd>
 8000b48:	20a8      	movs	r0, #168	; 0xa8
 8000b4a:	f7ff ff69 	bl	8000a20 <vSdData>
 8000b4e:	20b1      	movs	r0, #177	; 0xb1
 8000b50:	f7ff ff46 	bl	80009e0 <vSdCmd>
 8000b54:	200e      	movs	r0, #14
 8000b56:	f7ff ff63 	bl	8000a20 <vSdData>
 8000b5a:	2014      	movs	r0, #20
 8000b5c:	f7ff ff60 	bl	8000a20 <vSdData>
 8000b60:	203a      	movs	r0, #58	; 0x3a
 8000b62:	f7ff ff3d 	bl	80009e0 <vSdCmd>
 8000b66:	2005      	movs	r0, #5
 8000b68:	f7ff ff5a 	bl	8000a20 <vSdData>
 8000b6c:	2029      	movs	r0, #41	; 0x29
 8000b6e:	f7ff ff37 	bl	80009e0 <vSdCmd>
 8000b72:	4a08      	ldr	r2, [pc, #32]	; (8000b94 <lcd_init+0x84>)
 8000b74:	f44f 60fc 	mov.w	r0, #2016	; 0x7e0
 8000b78:	68d3      	ldr	r3, [r2, #12]
 8000b7a:	f043 0302 	orr.w	r3, r3, #2
 8000b7e:	60d3      	str	r3, [r2, #12]
 8000b80:	f7ff ffb3 	bl	8000aea <display_color>
 8000b84:	e8bd 4010 	ldmia.w	sp!, {r4, lr}
 8000b88:	f44f 707a 	mov.w	r0, #1000	; 0x3e8
 8000b8c:	f001 b81a 	b.w	8001bc4 <HAL_Delay>
 8000b90:	40010c00 	.word	0x40010c00
 8000b94:	40010800 	.word	0x40010800

08000b98 <MX_GPIO_Init>:
 8000b98:	e92d 4ff0 	stmdb	sp!, {r4, r5, r6, r7, r8, r9, sl, fp, lr}
 8000b9c:	f04f 0b10 	mov.w	fp, #16
 8000ba0:	b089      	sub	sp, #36	; 0x24
 8000ba2:	465a      	mov	r2, fp
 8000ba4:	2100      	movs	r1, #0
 8000ba6:	eb0d 000b 	add.w	r0, sp, fp
 8000baa:	f002 f979 	bl	8002ea0 <memset>
 8000bae:	4b58      	ldr	r3, [pc, #352]	; (8000d10 <MX_GPIO_Init+0x178>)
 8000bb0:	4f58      	ldr	r7, [pc, #352]	; (8000d14 <MX_GPIO_Init+0x17c>)
 8000bb2:	699a      	ldr	r2, [r3, #24]
 8000bb4:	f8df 8164 	ldr.w	r8, [pc, #356]	; 8000d1c <MX_GPIO_Init+0x184>
 8000bb8:	ea42 020b 	orr.w	r2, r2, fp
 8000bbc:	619a      	str	r2, [r3, #24]
 8000bbe:	699a      	ldr	r2, [r3, #24]
 8000bc0:	4638      	mov	r0, r7
 8000bc2:	ea02 020b 	and.w	r2, r2, fp
 8000bc6:	9200      	str	r2, [sp, #0]
 8000bc8:	9a00      	ldr	r2, [sp, #0]
 8000bca:	699a      	ldr	r2, [r3, #24]
 8000bcc:	f248 71ce 	movw	r1, #34766	; 0x87ce
 8000bd0:	f042 0220 	orr.w	r2, r2, #32
 8000bd4:	619a      	str	r2, [r3, #24]
 8000bd6:	699a      	ldr	r2, [r3, #24]
 8000bd8:	4e4f      	ldr	r6, [pc, #316]	; (8000d18 <MX_GPIO_Init+0x180>)
 8000bda:	f002 0220 	and.w	r2, r2, #32
 8000bde:	9201      	str	r2, [sp, #4]
 8000be0:	9a01      	ldr	r2, [sp, #4]
 8000be2:	699a      	ldr	r2, [r3, #24]
 8000be4:	2400      	movs	r4, #0
 8000be6:	f042 0204 	orr.w	r2, r2, #4
 8000bea:	619a      	str	r2, [r3, #24]
 8000bec:	699a      	ldr	r2, [r3, #24]
 8000bee:	2501      	movs	r5, #1
 8000bf0:	f002 0204 	and.w	r2, r2, #4
 8000bf4:	9202      	str	r2, [sp, #8]
 8000bf6:	9a02      	ldr	r2, [sp, #8]
 8000bf8:	699a      	ldr	r2, [r3, #24]
 8000bfa:	f04f 0a03 	mov.w	sl, #3
 8000bfe:	f042 0208 	orr.w	r2, r2, #8
 8000c02:	619a      	str	r2, [r3, #24]
 8000c04:	699b      	ldr	r3, [r3, #24]
 8000c06:	2201      	movs	r2, #1
 8000c08:	f003 0308 	and.w	r3, r3, #8
 8000c0c:	9303      	str	r3, [sp, #12]
 8000c0e:	9b03      	ldr	r3, [sp, #12]
 8000c10:	f001 f9f4 	bl	8001ffc <HAL_GPIO_WritePin>
 8000c14:	4640      	mov	r0, r8
 8000c16:	2200      	movs	r2, #0
 8000c18:	f248 7102 	movw	r1, #34562	; 0x8702
 8000c1c:	f001 f9ee 	bl	8001ffc <HAL_GPIO_WritePin>
 8000c20:	4640      	mov	r0, r8
 8000c22:	2201      	movs	r2, #1
 8000c24:	2170      	movs	r1, #112	; 0x70
 8000c26:	f001 f9e9 	bl	8001ffc <HAL_GPIO_WritePin>
 8000c2a:	4659      	mov	r1, fp
 8000c2c:	4638      	mov	r0, r7
 8000c2e:	2200      	movs	r2, #0
 8000c30:	f001 f9e4 	bl	8001ffc <HAL_GPIO_WritePin>
 8000c34:	4630      	mov	r0, r6
 8000c36:	2201      	movs	r2, #1
 8000c38:	f24f 0102 	movw	r1, #61442	; 0xf002
 8000c3c:	f001 f9de 	bl	8001ffc <HAL_GPIO_WritePin>
 8000c40:	2200      	movs	r2, #0
 8000c42:	4630      	mov	r0, r6
 8000c44:	f44f 7140 	mov.w	r1, #768	; 0x300
 8000c48:	f001 f9d8 	bl	8001ffc <HAL_GPIO_WritePin>
 8000c4c:	f247 0320 	movw	r3, #28704	; 0x7020
 8000c50:	eb0d 010b 	add.w	r1, sp, fp
 8000c54:	4638      	mov	r0, r7
 8000c56:	e9cd 3404 	strd	r3, r4, [sp, #16]
 8000c5a:	9406      	str	r4, [sp, #24]
 8000c5c:	f001 f8dc 	bl	8001e18 <HAL_GPIO_Init>
 8000c60:	f248 73ce 	movw	r3, #34766	; 0x87ce
 8000c64:	eb0d 010b 	add.w	r1, sp, fp
 8000c68:	4638      	mov	r0, r7
 8000c6a:	f04f 0902 	mov.w	r9, #2
 8000c6e:	e9cd 3504 	strd	r3, r5, [sp, #16]
 8000c72:	9406      	str	r4, [sp, #24]
 8000c74:	f8cd a01c 	str.w	sl, [sp, #28]
 8000c78:	f001 f8ce 	bl	8001e18 <HAL_GPIO_Init>
 8000c7c:	f248 7302 	movw	r3, #34562	; 0x8702
 8000c80:	eb0d 010b 	add.w	r1, sp, fp
 8000c84:	4640      	mov	r0, r8
 8000c86:	e9cd 3504 	strd	r3, r5, [sp, #16]
 8000c8a:	9406      	str	r4, [sp, #24]
 8000c8c:	f8cd 901c 	str.w	r9, [sp, #28]
 8000c90:	f001 f8c2 	bl	8001e18 <HAL_GPIO_Init>
 8000c94:	2370      	movs	r3, #112	; 0x70
 8000c96:	eb0d 010b 	add.w	r1, sp, fp
 8000c9a:	4640      	mov	r0, r8
 8000c9c:	e9cd 3504 	strd	r3, r5, [sp, #16]
 8000ca0:	e9cd 4a06 	strd	r4, sl, [sp, #24]
 8000ca4:	f001 f8b8 	bl	8001e18 <HAL_GPIO_Init>
 8000ca8:	2380      	movs	r3, #128	; 0x80
 8000caa:	eb0d 010b 	add.w	r1, sp, fp
 8000cae:	4640      	mov	r0, r8
 8000cb0:	e9cd 3404 	strd	r3, r4, [sp, #16]
 8000cb4:	9406      	str	r4, [sp, #24]
 8000cb6:	f001 f8af 	bl	8001e18 <HAL_GPIO_Init>
 8000cba:	eb0d 010b 	add.w	r1, sp, fp
 8000cbe:	4638      	mov	r0, r7
 8000cc0:	e9cd b504 	strd	fp, r5, [sp, #16]
 8000cc4:	e9cd 4906 	strd	r4, r9, [sp, #24]
 8000cc8:	f001 f8a6 	bl	8001e18 <HAL_GPIO_Init>
 8000ccc:	eb0d 010b 	add.w	r1, sp, fp
 8000cd0:	4630      	mov	r0, r6
 8000cd2:	e9cd 5404 	strd	r5, r4, [sp, #16]
 8000cd6:	9406      	str	r4, [sp, #24]
 8000cd8:	f001 f89e 	bl	8001e18 <HAL_GPIO_Init>
 8000cdc:	f24f 0302 	movw	r3, #61442	; 0xf002
 8000ce0:	eb0d 010b 	add.w	r1, sp, fp
 8000ce4:	4630      	mov	r0, r6
 8000ce6:	e9cd 3504 	strd	r3, r5, [sp, #16]
 8000cea:	e9cd 4a06 	strd	r4, sl, [sp, #24]
 8000cee:	f001 f893 	bl	8001e18 <HAL_GPIO_Init>
 8000cf2:	f44f 7340 	mov.w	r3, #768	; 0x300
 8000cf6:	eb0d 010b 	add.w	r1, sp, fp
 8000cfa:	4630      	mov	r0, r6
 8000cfc:	e9cd 3504 	strd	r3, r5, [sp, #16]
 8000d00:	e9cd 4906 	strd	r4, r9, [sp, #24]
 8000d04:	f001 f888 	bl	8001e18 <HAL_GPIO_Init>
 8000d08:	b009      	add	sp, #36	; 0x24
 8000d0a:	e8bd 8ff0 	ldmia.w	sp!, {r4, r5, r6, r7, r8, r9, sl, fp, pc}
 8000d0e:	bf00      	nop
 8000d10:	40021000 	.word	0x40021000
 8000d14:	40011000 	.word	0x40011000
 8000d18:	40010c00 	.word	0x40010c00
 8000d1c:	40010800 	.word	0x40010800

08000d20 <delay_init>:
 8000d20:	b510      	push	{r4, lr}
 8000d22:	4604      	mov	r4, r0
 8000d24:	2004      	movs	r0, #4
 8000d26:	f000 ffc9 	bl	8001cbc <HAL_SYSTICK_CLKSourceConfig>
 8000d2a:	4b01      	ldr	r3, [pc, #4]	; (8000d30 <delay_init+0x10>)
 8000d2c:	701c      	strb	r4, [r3, #0]
 8000d2e:	bd10      	pop	{r4, pc}
 8000d30:	200007c8 	.word	0x200007c8

08000d34 <delay_us1>:
 8000d34:	b530      	push	{r4, r5, lr}
 8000d36:	4b09      	ldr	r3, [pc, #36]	; (8000d5c <delay_us1+0x28>)
 8000d38:	4a09      	ldr	r2, [pc, #36]	; (8000d60 <delay_us1+0x2c>)
 8000d3a:	781b      	ldrb	r3, [r3, #0]
 8000d3c:	6855      	ldr	r5, [r2, #4]
 8000d3e:	4358      	muls	r0, r3
 8000d40:	2300      	movs	r3, #0
 8000d42:	6894      	ldr	r4, [r2, #8]
 8000d44:	6891      	ldr	r1, [r2, #8]
 8000d46:	428c      	cmp	r4, r1
 8000d48:	d0fc      	beq.n	8000d44 <delay_us1+0x10>
 8000d4a:	4423      	add	r3, r4
 8000d4c:	bf98      	it	ls
 8000d4e:	195b      	addls	r3, r3, r5
 8000d50:	1a5b      	subs	r3, r3, r1
 8000d52:	4283      	cmp	r3, r0
 8000d54:	460c      	mov	r4, r1
 8000d56:	d3f5      	bcc.n	8000d44 <delay_us1+0x10>
 8000d58:	bd30      	pop	{r4, r5, pc}
 8000d5a:	bf00      	nop
 8000d5c:	200007c8 	.word	0x200007c8
 8000d60:	e000e010 	.word	0xe000e010

08000d64 <SystemClock_Config>:
 8000d64:	b530      	push	{r4, r5, lr}
 8000d66:	2414      	movs	r4, #20
 8000d68:	b097      	sub	sp, #92	; 0x5c
 8000d6a:	4622      	mov	r2, r4
 8000d6c:	2100      	movs	r1, #0
 8000d6e:	a80e      	add	r0, sp, #56	; 0x38
 8000d70:	f002 f896 	bl	8002ea0 <memset>
 8000d74:	4622      	mov	r2, r4
 8000d76:	2100      	movs	r1, #0
 8000d78:	a801      	add	r0, sp, #4
 8000d7a:	f002 f891 	bl	8002ea0 <memset>
 8000d7e:	2218      	movs	r2, #24
 8000d80:	2100      	movs	r1, #0
 8000d82:	eb0d 0002 	add.w	r0, sp, r2
 8000d86:	f002 f88b 	bl	8002ea0 <memset>
 8000d8a:	2502      	movs	r5, #2
 8000d8c:	2201      	movs	r2, #1
 8000d8e:	f44f 3380 	mov.w	r3, #65536	; 0x10000
 8000d92:	e9cd 230c 	strd	r2, r3, [sp, #48]	; 0x30
 8000d96:	e9cd 5313 	strd	r5, r3, [sp, #76]	; 0x4c
 8000d9a:	f44f 13e0 	mov.w	r3, #1835008	; 0x1c0000
 8000d9e:	a80c      	add	r0, sp, #48	; 0x30
 8000da0:	9210      	str	r2, [sp, #64]	; 0x40
 8000da2:	9315      	str	r3, [sp, #84]	; 0x54
 8000da4:	f001 f9aa 	bl	80020fc <HAL_RCC_OscConfig>
 8000da8:	230f      	movs	r3, #15
 8000daa:	2400      	movs	r4, #0
 8000dac:	e9cd 3501 	strd	r3, r5, [sp, #4]
 8000db0:	f44f 6380 	mov.w	r3, #1024	; 0x400
 8000db4:	4629      	mov	r1, r5
 8000db6:	a801      	add	r0, sp, #4
 8000db8:	e9cd 4303 	strd	r4, r3, [sp, #12]
 8000dbc:	9405      	str	r4, [sp, #20]
 8000dbe:	f001 fb75 	bl	80024ac <HAL_RCC_ClockConfig>
 8000dc2:	2310      	movs	r3, #16
 8000dc4:	a806      	add	r0, sp, #24
 8000dc6:	9306      	str	r3, [sp, #24]
 8000dc8:	940b      	str	r4, [sp, #44]	; 0x2c
 8000dca:	f001 fc2b 	bl	8002624 <HAL_RCCEx_PeriphCLKConfig>
 8000dce:	b017      	add	sp, #92	; 0x5c
 8000dd0:	bd30      	pop	{r4, r5, pc}
	...

08000dd4 <HAL_TIM_PeriodElapsedCallback>:
 8000dd4:	b538      	push	{r3, r4, r5, lr}
 8000dd6:	4604      	mov	r4, r0
 8000dd8:	4891      	ldr	r0, [pc, #580]	; (8001020 <HAL_TIM_PeriodElapsedCallback+0x24c>)
 8000dda:	6822      	ldr	r2, [r4, #0]
 8000ddc:	6803      	ldr	r3, [r0, #0]
 8000dde:	429a      	cmp	r2, r3
 8000de0:	d10c      	bne.n	8000dfc <HAL_TIM_PeriodElapsedCallback+0x28>
 8000de2:	4a90      	ldr	r2, [pc, #576]	; (8001024 <HAL_TIM_PeriodElapsedCallback+0x250>)
 8000de4:	7813      	ldrb	r3, [r2, #0]
 8000de6:	f043 0380 	orr.w	r3, r3, #128	; 0x80
 8000dea:	7013      	strb	r3, [r2, #0]
 8000dec:	4b8e      	ldr	r3, [pc, #568]	; (8001028 <HAL_TIM_PeriodElapsedCallback+0x254>)
 8000dee:	4a8f      	ldr	r2, [pc, #572]	; (800102c <HAL_TIM_PeriodElapsedCallback+0x258>)
 8000df0:	7819      	ldrb	r1, [r3, #0]
 8000df2:	7011      	strb	r1, [r2, #0]
 8000df4:	2200      	movs	r2, #0
 8000df6:	701a      	strb	r2, [r3, #0]
 8000df8:	f001 fc9c 	bl	8002734 <HAL_TIM_Base_Stop_IT>
 8000dfc:	4b8c      	ldr	r3, [pc, #560]	; (8001030 <HAL_TIM_PeriodElapsedCallback+0x25c>)
 8000dfe:	6822      	ldr	r2, [r4, #0]
 8000e00:	681b      	ldr	r3, [r3, #0]
 8000e02:	429a      	cmp	r2, r3
 8000e04:	f040 808f 	bne.w	8000f26 <HAL_TIM_PeriodElapsedCallback+0x152>
 8000e08:	4a8a      	ldr	r2, [pc, #552]	; (8001034 <HAL_TIM_PeriodElapsedCallback+0x260>)
 8000e0a:	8813      	ldrh	r3, [r2, #0]
 8000e0c:	3301      	adds	r3, #1
 8000e0e:	8013      	strh	r3, [r2, #0]
 8000e10:	4a89      	ldr	r2, [pc, #548]	; (8001038 <HAL_TIM_PeriodElapsedCallback+0x264>)
 8000e12:	6813      	ldr	r3, [r2, #0]
 8000e14:	3301      	adds	r3, #1
 8000e16:	6013      	str	r3, [r2, #0]
 8000e18:	4a88      	ldr	r2, [pc, #544]	; (800103c <HAL_TIM_PeriodElapsedCallback+0x268>)
 8000e1a:	6813      	ldr	r3, [r2, #0]
 8000e1c:	3301      	adds	r3, #1
 8000e1e:	6013      	str	r3, [r2, #0]
 8000e20:	4a87      	ldr	r2, [pc, #540]	; (8001040 <HAL_TIM_PeriodElapsedCallback+0x26c>)
 8000e22:	8813      	ldrh	r3, [r2, #0]
 8000e24:	3301      	adds	r3, #1
 8000e26:	b29b      	uxth	r3, r3
 8000e28:	2b19      	cmp	r3, #25
 8000e2a:	f200 808d 	bhi.w	8000f48 <HAL_TIM_PeriodElapsedCallback+0x174>
 8000e2e:	8013      	strh	r3, [r2, #0]
 8000e30:	4d84      	ldr	r5, [pc, #528]	; (8001044 <HAL_TIM_PeriodElapsedCallback+0x270>)
 8000e32:	f44f 5100 	mov.w	r1, #8192	; 0x2000
 8000e36:	68eb      	ldr	r3, [r5, #12]
 8000e38:	4628      	mov	r0, r5
 8000e3a:	f423 4300 	bic.w	r3, r3, #32768	; 0x8000
 8000e3e:	60eb      	str	r3, [r5, #12]
 8000e40:	68eb      	ldr	r3, [r5, #12]
 8000e42:	f043 0308 	orr.w	r3, r3, #8
 8000e46:	60eb      	str	r3, [r5, #12]
 8000e48:	f001 f8d2 	bl	8001ff0 <HAL_GPIO_ReadPin>
 8000e4c:	4a7e      	ldr	r2, [pc, #504]	; (8001048 <HAL_TIM_PeriodElapsedCallback+0x274>)
 8000e4e:	2800      	cmp	r0, #0
 8000e50:	f040 8087 	bne.w	8000f62 <HAL_TIM_PeriodElapsedCallback+0x18e>
 8000e54:	7813      	ldrb	r3, [r2, #0]
 8000e56:	3301      	adds	r3, #1
 8000e58:	b2db      	uxtb	r3, r3
 8000e5a:	2b01      	cmp	r3, #1
 8000e5c:	bf81      	itttt	hi
 8000e5e:	2303      	movhi	r3, #3
 8000e60:	7013      	strbhi	r3, [r2, #0]
 8000e62:	4a7a      	ldrhi	r2, [pc, #488]	; (800104c <HAL_TIM_PeriodElapsedCallback+0x278>)
 8000e64:	7813      	ldrbhi	r3, [r2, #0]
 8000e66:	bf88      	it	hi
 8000e68:	f043 0301 	orrhi.w	r3, r3, #1
 8000e6c:	7013      	strb	r3, [r2, #0]
 8000e6e:	f44f 4180 	mov.w	r1, #16384	; 0x4000
 8000e72:	4874      	ldr	r0, [pc, #464]	; (8001044 <HAL_TIM_PeriodElapsedCallback+0x270>)
 8000e74:	f001 f8bc 	bl	8001ff0 <HAL_GPIO_ReadPin>
 8000e78:	4a75      	ldr	r2, [pc, #468]	; (8001050 <HAL_TIM_PeriodElapsedCallback+0x27c>)
 8000e7a:	2800      	cmp	r0, #0
 8000e7c:	f040 8086 	bne.w	8000f8c <HAL_TIM_PeriodElapsedCallback+0x1b8>
 8000e80:	7813      	ldrb	r3, [r2, #0]
 8000e82:	3301      	adds	r3, #1
 8000e84:	b2db      	uxtb	r3, r3
 8000e86:	2b01      	cmp	r3, #1
 8000e88:	bf81      	itttt	hi
 8000e8a:	2303      	movhi	r3, #3
 8000e8c:	7013      	strbhi	r3, [r2, #0]
 8000e8e:	4a6f      	ldrhi	r2, [pc, #444]	; (800104c <HAL_TIM_PeriodElapsedCallback+0x278>)
 8000e90:	7813      	ldrbhi	r3, [r2, #0]
 8000e92:	bf88      	it	hi
 8000e94:	f043 0302 	orrhi.w	r3, r3, #2
 8000e98:	7013      	strb	r3, [r2, #0]
 8000e9a:	68eb      	ldr	r3, [r5, #12]
 8000e9c:	f44f 5100 	mov.w	r1, #8192	; 0x2000
 8000ea0:	f443 4300 	orr.w	r3, r3, #32768	; 0x8000
 8000ea4:	60eb      	str	r3, [r5, #12]
 8000ea6:	68eb      	ldr	r3, [r5, #12]
 8000ea8:	4866      	ldr	r0, [pc, #408]	; (8001044 <HAL_TIM_PeriodElapsedCallback+0x270>)
 8000eaa:	f023 0308 	bic.w	r3, r3, #8
 8000eae:	60eb      	str	r3, [r5, #12]
 8000eb0:	f001 f89e 	bl	8001ff0 <HAL_GPIO_ReadPin>
 8000eb4:	4a67      	ldr	r2, [pc, #412]	; (8001054 <HAL_TIM_PeriodElapsedCallback+0x280>)
 8000eb6:	2800      	cmp	r0, #0
 8000eb8:	d17c      	bne.n	8000fb4 <HAL_TIM_PeriodElapsedCallback+0x1e0>
 8000eba:	7813      	ldrb	r3, [r2, #0]
 8000ebc:	3301      	adds	r3, #1
 8000ebe:	b2db      	uxtb	r3, r3
 8000ec0:	2b01      	cmp	r3, #1
 8000ec2:	bf81      	itttt	hi
 8000ec4:	2303      	movhi	r3, #3
 8000ec6:	7013      	strbhi	r3, [r2, #0]
 8000ec8:	4a60      	ldrhi	r2, [pc, #384]	; (800104c <HAL_TIM_PeriodElapsedCallback+0x278>)
 8000eca:	7813      	ldrbhi	r3, [r2, #0]
 8000ecc:	bf88      	it	hi
 8000ece:	f043 0304 	orrhi.w	r3, r3, #4
 8000ed2:	7013      	strb	r3, [r2, #0]
 8000ed4:	f44f 4180 	mov.w	r1, #16384	; 0x4000
 8000ed8:	485a      	ldr	r0, [pc, #360]	; (8001044 <HAL_TIM_PeriodElapsedCallback+0x270>)
 8000eda:	f001 f889 	bl	8001ff0 <HAL_GPIO_ReadPin>
 8000ede:	4a5e      	ldr	r2, [pc, #376]	; (8001058 <HAL_TIM_PeriodElapsedCallback+0x284>)
 8000ee0:	2800      	cmp	r0, #0
 8000ee2:	d17b      	bne.n	8000fdc <HAL_TIM_PeriodElapsedCallback+0x208>
 8000ee4:	7813      	ldrb	r3, [r2, #0]
 8000ee6:	3301      	adds	r3, #1
 8000ee8:	b2db      	uxtb	r3, r3
 8000eea:	2b01      	cmp	r3, #1
 8000eec:	bf81      	itttt	hi
 8000eee:	2303      	movhi	r3, #3
 8000ef0:	7013      	strbhi	r3, [r2, #0]
 8000ef2:	4a56      	ldrhi	r2, [pc, #344]	; (800104c <HAL_TIM_PeriodElapsedCallback+0x278>)
 8000ef4:	7813      	ldrbhi	r3, [r2, #0]
 8000ef6:	bf88      	it	hi
 8000ef8:	f043 0308 	orrhi.w	r3, r3, #8
 8000efc:	7013      	strb	r3, [r2, #0]
 8000efe:	2120      	movs	r1, #32
 8000f00:	4850      	ldr	r0, [pc, #320]	; (8001044 <HAL_TIM_PeriodElapsedCallback+0x270>)
 8000f02:	f001 f875 	bl	8001ff0 <HAL_GPIO_ReadPin>
 8000f06:	4a55      	ldr	r2, [pc, #340]	; (800105c <HAL_TIM_PeriodElapsedCallback+0x288>)
 8000f08:	2800      	cmp	r0, #0
 8000f0a:	d17a      	bne.n	8001002 <HAL_TIM_PeriodElapsedCallback+0x22e>
 8000f0c:	7813      	ldrb	r3, [r2, #0]
 8000f0e:	3301      	adds	r3, #1
 8000f10:	b2db      	uxtb	r3, r3
 8000f12:	2b01      	cmp	r3, #1
 8000f14:	bf81      	itttt	hi
 8000f16:	2303      	movhi	r3, #3
 8000f18:	7013      	strbhi	r3, [r2, #0]
 8000f1a:	4a4c      	ldrhi	r2, [pc, #304]	; (800104c <HAL_TIM_PeriodElapsedCallback+0x278>)
 8000f1c:	7813      	ldrbhi	r3, [r2, #0]
 8000f1e:	bf88      	it	hi
 8000f20:	f043 0320 	orrhi.w	r3, r3, #32
 8000f24:	7013      	strb	r3, [r2, #0]
 8000f26:	4b4e      	ldr	r3, [pc, #312]	; (8001060 <HAL_TIM_PeriodElapsedCallback+0x28c>)
 8000f28:	6822      	ldr	r2, [r4, #0]
 8000f2a:	681b      	ldr	r3, [r3, #0]
 8000f2c:	429a      	cmp	r2, r3
 8000f2e:	d176      	bne.n	800101e <HAL_TIM_PeriodElapsedCallback+0x24a>
 8000f30:	4a4c      	ldr	r2, [pc, #304]	; (8001064 <HAL_TIM_PeriodElapsedCallback+0x290>)
 8000f32:	7813      	ldrb	r3, [r2, #0]
 8000f34:	075b      	lsls	r3, r3, #29
 8000f36:	d572      	bpl.n	800101e <HAL_TIM_PeriodElapsedCallback+0x24a>
 8000f38:	7813      	ldrb	r3, [r2, #0]
 8000f3a:	f36f 0382 	bfc	r3, #2, #1
 8000f3e:	7013      	strb	r3, [r2, #0]
 8000f40:	e8bd 4038 	ldmia.w	sp!, {r3, r4, r5, lr}
 8000f44:	f000 bd96 	b.w	8001a74 <send_string_data1>
 8000f48:	2300      	movs	r3, #0
 8000f4a:	8013      	strh	r3, [r2, #0]
 8000f4c:	4b46      	ldr	r3, [pc, #280]	; (8001068 <HAL_TIM_PeriodElapsedCallback+0x294>)
 8000f4e:	781b      	ldrb	r3, [r3, #0]
 8000f50:	0719      	lsls	r1, r3, #28
 8000f52:	f57f af6d 	bpl.w	8000e30 <HAL_TIM_PeriodElapsedCallback+0x5c>
 8000f56:	f44f 6180 	mov.w	r1, #1024	; 0x400
 8000f5a:	4844      	ldr	r0, [pc, #272]	; (800106c <HAL_TIM_PeriodElapsedCallback+0x298>)
 8000f5c:	f001 f853 	bl	8002006 <HAL_GPIO_TogglePin>
 8000f60:	e766      	b.n	8000e30 <HAL_TIM_PeriodElapsedCallback+0x5c>
 8000f62:	2300      	movs	r3, #0
 8000f64:	4939      	ldr	r1, [pc, #228]	; (800104c <HAL_TIM_PeriodElapsedCallback+0x278>)
 8000f66:	7013      	strb	r3, [r2, #0]
 8000f68:	780a      	ldrb	r2, [r1, #0]
 8000f6a:	07d2      	lsls	r2, r2, #31
 8000f6c:	f57f af7f 	bpl.w	8000e6e <HAL_TIM_PeriodElapsedCallback+0x9a>
 8000f70:	780a      	ldrb	r2, [r1, #0]
 8000f72:	f363 0200 	bfi	r2, r3, #0, #1
 8000f76:	700a      	strb	r2, [r1, #0]
 8000f78:	21ff      	movs	r1, #255	; 0xff
 8000f7a:	4a3d      	ldr	r2, [pc, #244]	; (8001070 <HAL_TIM_PeriodElapsedCallback+0x29c>)
 8000f7c:	7011      	strb	r1, [r2, #0]
 8000f7e:	4a3d      	ldr	r2, [pc, #244]	; (8001074 <HAL_TIM_PeriodElapsedCallback+0x2a0>)
 8000f80:	7013      	strb	r3, [r2, #0]
 8000f82:	4a3d      	ldr	r2, [pc, #244]	; (8001078 <HAL_TIM_PeriodElapsedCallback+0x2a4>)
 8000f84:	7013      	strb	r3, [r2, #0]
 8000f86:	f000 fd75 	bl	8001a74 <send_string_data1>
 8000f8a:	e770      	b.n	8000e6e <HAL_TIM_PeriodElapsedCallback+0x9a>
 8000f8c:	2100      	movs	r1, #0
 8000f8e:	7011      	strb	r1, [r2, #0]
 8000f90:	4a2e      	ldr	r2, [pc, #184]	; (800104c <HAL_TIM_PeriodElapsedCallback+0x278>)
 8000f92:	7813      	ldrb	r3, [r2, #0]
 8000f94:	0798      	lsls	r0, r3, #30
 8000f96:	d580      	bpl.n	8000e9a <HAL_TIM_PeriodElapsedCallback+0xc6>
 8000f98:	7813      	ldrb	r3, [r2, #0]
 8000f9a:	f361 0341 	bfi	r3, r1, #1, #1
 8000f9e:	7013      	strb	r3, [r2, #0]
 8000fa0:	23ff      	movs	r3, #255	; 0xff
 8000fa2:	4a33      	ldr	r2, [pc, #204]	; (8001070 <HAL_TIM_PeriodElapsedCallback+0x29c>)
 8000fa4:	7013      	strb	r3, [r2, #0]
 8000fa6:	4a33      	ldr	r2, [pc, #204]	; (8001074 <HAL_TIM_PeriodElapsedCallback+0x2a0>)
 8000fa8:	7013      	strb	r3, [r2, #0]
 8000faa:	4b33      	ldr	r3, [pc, #204]	; (8001078 <HAL_TIM_PeriodElapsedCallback+0x2a4>)
 8000fac:	7019      	strb	r1, [r3, #0]
 8000fae:	f000 fd61 	bl	8001a74 <send_string_data1>
 8000fb2:	e772      	b.n	8000e9a <HAL_TIM_PeriodElapsedCallback+0xc6>
 8000fb4:	2100      	movs	r1, #0
 8000fb6:	7011      	strb	r1, [r2, #0]
 8000fb8:	4a24      	ldr	r2, [pc, #144]	; (800104c <HAL_TIM_PeriodElapsedCallback+0x278>)
 8000fba:	7813      	ldrb	r3, [r2, #0]
 8000fbc:	075b      	lsls	r3, r3, #29
 8000fbe:	d589      	bpl.n	8000ed4 <HAL_TIM_PeriodElapsedCallback+0x100>
 8000fc0:	7813      	ldrb	r3, [r2, #0]
 8000fc2:	f361 0382 	bfi	r3, r1, #2, #1
 8000fc6:	7013      	strb	r3, [r2, #0]
 8000fc8:	23ff      	movs	r3, #255	; 0xff
 8000fca:	4a29      	ldr	r2, [pc, #164]	; (8001070 <HAL_TIM_PeriodElapsedCallback+0x29c>)
 8000fcc:	7013      	strb	r3, [r2, #0]
 8000fce:	4a29      	ldr	r2, [pc, #164]	; (8001074 <HAL_TIM_PeriodElapsedCallback+0x2a0>)
 8000fd0:	7013      	strb	r3, [r2, #0]
 8000fd2:	4a29      	ldr	r2, [pc, #164]	; (8001078 <HAL_TIM_PeriodElapsedCallback+0x2a4>)
 8000fd4:	7013      	strb	r3, [r2, #0]
 8000fd6:	f000 fd4d 	bl	8001a74 <send_string_data1>
 8000fda:	e77b      	b.n	8000ed4 <HAL_TIM_PeriodElapsedCallback+0x100>
 8000fdc:	2300      	movs	r3, #0
 8000fde:	491b      	ldr	r1, [pc, #108]	; (800104c <HAL_TIM_PeriodElapsedCallback+0x278>)
 8000fe0:	7013      	strb	r3, [r2, #0]
 8000fe2:	780a      	ldrb	r2, [r1, #0]
 8000fe4:	0715      	lsls	r5, r2, #28
 8000fe6:	d58a      	bpl.n	8000efe <HAL_TIM_PeriodElapsedCallback+0x12a>
 8000fe8:	780a      	ldrb	r2, [r1, #0]
 8000fea:	f363 02c3 	bfi	r2, r3, #3, #1
 8000fee:	700a      	strb	r2, [r1, #0]
 8000ff0:	4a1f      	ldr	r2, [pc, #124]	; (8001070 <HAL_TIM_PeriodElapsedCallback+0x29c>)
 8000ff2:	7013      	strb	r3, [r2, #0]
 8000ff4:	4a1f      	ldr	r2, [pc, #124]	; (8001074 <HAL_TIM_PeriodElapsedCallback+0x2a0>)
 8000ff6:	7013      	strb	r3, [r2, #0]
 8000ff8:	4a1f      	ldr	r2, [pc, #124]	; (8001078 <HAL_TIM_PeriodElapsedCallback+0x2a4>)
 8000ffa:	7013      	strb	r3, [r2, #0]
 8000ffc:	f000 fd3a 	bl	8001a74 <send_string_data1>
 8001000:	e77d      	b.n	8000efe <HAL_TIM_PeriodElapsedCallback+0x12a>
 8001002:	2100      	movs	r1, #0
 8001004:	7011      	strb	r1, [r2, #0]
 8001006:	4a11      	ldr	r2, [pc, #68]	; (800104c <HAL_TIM_PeriodElapsedCallback+0x278>)
 8001008:	7813      	ldrb	r3, [r2, #0]
 800100a:	0698      	lsls	r0, r3, #26
 800100c:	d58b      	bpl.n	8000f26 <HAL_TIM_PeriodElapsedCallback+0x152>
 800100e:	7813      	ldrb	r3, [r2, #0]
 8001010:	481a      	ldr	r0, [pc, #104]	; (800107c <HAL_TIM_PeriodElapsedCallback+0x2a8>)
 8001012:	f361 1345 	bfi	r3, r1, #5, #1
 8001016:	7013      	strb	r3, [r2, #0]
 8001018:	f000 fd38 	bl	8001a8c <send_image>
 800101c:	e783      	b.n	8000f26 <HAL_TIM_PeriodElapsedCallback+0x152>
 800101e:	bd38      	pop	{r3, r4, r5, pc}
 8001020:	200009e8 	.word	0x200009e8
 8001024:	20000045 	.word	0x20000045
 8001028:	20000740 	.word	0x20000740
 800102c:	20000600 	.word	0x20000600
 8001030:	20000788 	.word	0x20000788
 8001034:	2000052c 	.word	0x2000052c
 8001038:	2000014c 	.word	0x2000014c
 800103c:	20000364 	.word	0x20000364
 8001040:	2000003c 	.word	0x2000003c
 8001044:	40011000 	.word	0x40011000
 8001048:	20000b36 	.word	0x20000b36
 800104c:	20000042 	.word	0x20000042
 8001050:	200008db 	.word	0x200008db
 8001054:	20000b38 	.word	0x20000b38
 8001058:	20000784 	.word	0x20000784
 800105c:	20000964 	.word	0x20000964
 8001060:	200005c0 	.word	0x200005c0
 8001064:	20000151 	.word	0x20000151
 8001068:	20000046 	.word	0x20000046
 800106c:	40010800 	.word	0x40010800
 8001070:	20000dae 	.word	0x20000dae
 8001074:	20000da8 	.word	0x20000da8
 8001078:	20000db0 	.word	0x20000db0
 800107c:	08002ef0 	.word	0x08002ef0

08001080 <HAL_UART_RxCpltCallback>:
 8001080:	4b12      	ldr	r3, [pc, #72]	; (80010cc <HAL_UART_RxCpltCallback+0x4c>)
 8001082:	b570      	push	{r4, r5, r6, lr}
 8001084:	4283      	cmp	r3, r0
 8001086:	d120      	bne.n	80010ca <HAL_UART_RxCpltCallback+0x4a>
 8001088:	2500      	movs	r5, #0
 800108a:	4c11      	ldr	r4, [pc, #68]	; (80010d0 <HAL_UART_RxCpltCallback+0x50>)
 800108c:	4811      	ldr	r0, [pc, #68]	; (80010d4 <HAL_UART_RxCpltCallback+0x54>)
 800108e:	7821      	ldrb	r1, [r4, #0]
 8001090:	6803      	ldr	r3, [r0, #0]
 8001092:	4e11      	ldr	r6, [pc, #68]	; (80010d8 <HAL_UART_RxCpltCallback+0x58>)
 8001094:	625d      	str	r5, [r3, #36]	; 0x24
 8001096:	1c4a      	adds	r2, r1, #1
 8001098:	7022      	strb	r2, [r4, #0]
 800109a:	7836      	ldrb	r6, [r6, #0]
 800109c:	4a0f      	ldr	r2, [pc, #60]	; (80010dc <HAL_UART_RxCpltCallback+0x5c>)
 800109e:	5456      	strb	r6, [r2, r1]
 80010a0:	7812      	ldrb	r2, [r2, #0]
 80010a2:	2a52      	cmp	r2, #82	; 0x52
 80010a4:	f06f 0201 	mvn.w	r2, #1
 80010a8:	d109      	bne.n	80010be <HAL_UART_RxCpltCallback+0x3e>
 80010aa:	611a      	str	r2, [r3, #16]
 80010ac:	f001 fb32 	bl	8002714 <HAL_TIM_Base_Start_IT>
 80010b0:	e8bd 4070 	ldmia.w	sp!, {r4, r5, r6, lr}
 80010b4:	2201      	movs	r2, #1
 80010b6:	4908      	ldr	r1, [pc, #32]	; (80010d8 <HAL_UART_RxCpltCallback+0x58>)
 80010b8:	4804      	ldr	r0, [pc, #16]	; (80010cc <HAL_UART_RxCpltCallback+0x4c>)
 80010ba:	f001 bd91 	b.w	8002be0 <HAL_UART_Receive_IT>
 80010be:	625d      	str	r5, [r3, #36]	; 0x24
 80010c0:	611a      	str	r2, [r3, #16]
 80010c2:	f001 fb27 	bl	8002714 <HAL_TIM_Base_Start_IT>
 80010c6:	7025      	strb	r5, [r4, #0]
 80010c8:	e7f2      	b.n	80010b0 <HAL_UART_RxCpltCallback+0x30>
 80010ca:	bd70      	pop	{r4, r5, r6, pc}
 80010cc:	20000604 	.word	0x20000604
 80010d0:	20000740 	.word	0x20000740
 80010d4:	200009e8 	.word	0x200009e8
 80010d8:	20000812 	.word	0x20000812
 80010dc:	20000a6c 	.word	0x20000a6c

080010e0 <IOT_PROCESS>:
 80010e0:	e92d 4ff7 	stmdb	sp!, {r0, r1, r2, r4, r5, r6, r7, r8, r9, sl, fp, lr}
 80010e4:	4b79      	ldr	r3, [pc, #484]	; (80012cc <IOT_PROCESS+0x1ec>)
 80010e6:	497a      	ldr	r1, [pc, #488]	; (80012d0 <IOT_PROCESS+0x1f0>)
 80010e8:	781a      	ldrb	r2, [r3, #0]
 80010ea:	2a52      	cmp	r2, #82	; 0x52
 80010ec:	f040 80e5 	bne.w	80012ba <IOT_PROCESS+0x1da>
 80010f0:	4a78      	ldr	r2, [pc, #480]	; (80012d4 <IOT_PROCESS+0x1f4>)
 80010f2:	7812      	ldrb	r2, [r2, #0]
 80010f4:	f102 39ff 	add.w	r9, r2, #4294967295
 80010f8:	f813 0009 	ldrb.w	r0, [r3, r9]
 80010fc:	282a      	cmp	r0, #42	; 0x2a
 80010fe:	f040 80dc 	bne.w	80012ba <IOT_PROCESS+0x1da>
 8001102:	7808      	ldrb	r0, [r1, #0]
 8001104:	f8df a1d8 	ldr.w	sl, [pc, #472]	; 80012e0 <IOT_PROCESS+0x200>
 8001108:	f040 0004 	orr.w	r0, r0, #4
 800110c:	7008      	strb	r0, [r1, #0]
 800110e:	2100      	movs	r1, #0
 8001110:	460f      	mov	r7, r1
 8001112:	460e      	mov	r6, r1
 8001114:	4688      	mov	r8, r1
 8001116:	4870      	ldr	r0, [pc, #448]	; (80012d8 <IOT_PROCESS+0x1f8>)
 8001118:	4c70      	ldr	r4, [pc, #448]	; (80012dc <IOT_PROCESS+0x1fc>)
 800111a:	f8df b1e8 	ldr.w	fp, [pc, #488]	; 8001304 <IOT_PROCESS+0x224>
 800111e:	7805      	ldrb	r5, [r0, #0]
 8001120:	f89a c000 	ldrb.w	ip, [sl]
 8001124:	f894 e000 	ldrb.w	lr, [r4]
 8001128:	f88b 1000 	strb.w	r1, [fp]
 800112c:	9100      	str	r1, [sp, #0]
 800112e:	f8cd a004 	str.w	sl, [sp, #4]
 8001132:	fa5f fa81 	uxtb.w	sl, r1
 8001136:	45d1      	cmp	r9, sl
 8001138:	dc50      	bgt.n	80011dc <IOT_PROCESS+0xfc>
 800113a:	f1b8 0f00 	cmp.w	r8, #0
 800113e:	d002      	beq.n	8001146 <IOT_PROCESS+0x66>
 8001140:	4966      	ldr	r1, [pc, #408]	; (80012dc <IOT_PROCESS+0x1fc>)
 8001142:	f881 e000 	strb.w	lr, [r1]
 8001146:	9900      	ldr	r1, [sp, #0]
 8001148:	b111      	cbz	r1, 8001150 <IOT_PROCESS+0x70>
 800114a:	4965      	ldr	r1, [pc, #404]	; (80012e0 <IOT_PROCESS+0x200>)
 800114c:	f881 c000 	strb.w	ip, [r1]
 8001150:	b106      	cbz	r6, 8001154 <IOT_PROCESS+0x74>
 8001152:	7005      	strb	r5, [r0, #0]
 8001154:	b10f      	cbz	r7, 800115a <IOT_PROCESS+0x7a>
 8001156:	f88b a000 	strb.w	sl, [fp]
 800115a:	9901      	ldr	r1, [sp, #4]
 800115c:	4f61      	ldr	r7, [pc, #388]	; (80012e4 <IOT_PROCESS+0x204>)
 800115e:	780d      	ldrb	r5, [r1, #0]
 8001160:	7821      	ldrb	r1, [r4, #0]
 8001162:	1e6e      	subs	r6, r5, #1
 8001164:	1a76      	subs	r6, r6, r1
 8001166:	4960      	ldr	r1, [pc, #384]	; (80012e8 <IOT_PROCESS+0x208>)
 8001168:	b2f6      	uxtb	r6, r6
 800116a:	700e      	strb	r6, [r1, #0]
 800116c:	7801      	ldrb	r1, [r0, #0]
 800116e:	485f      	ldr	r0, [pc, #380]	; (80012ec <IOT_PROCESS+0x20c>)
 8001170:	1e4c      	subs	r4, r1, #1
 8001172:	1b64      	subs	r4, r4, r5
 8001174:	b2e4      	uxtb	r4, r4
 8001176:	7004      	strb	r4, [r0, #0]
 8001178:	1e90      	subs	r0, r2, #2
 800117a:	1a40      	subs	r0, r0, r1
 800117c:	b2c0      	uxtb	r0, r0
 800117e:	2e02      	cmp	r6, #2
 8001180:	7038      	strb	r0, [r7, #0]
 8001182:	4f5b      	ldr	r7, [pc, #364]	; (80012f0 <IOT_PROCESS+0x210>)
 8001184:	d03f      	beq.n	8001206 <IOT_PROCESS+0x126>
 8001186:	2e03      	cmp	r6, #3
 8001188:	d048      	beq.n	800121c <IOT_PROCESS+0x13c>
 800118a:	2e01      	cmp	r6, #1
 800118c:	d104      	bne.n	8001198 <IOT_PROCESS+0xb8>
 800118e:	441d      	add	r5, r3
 8001190:	f815 5c01 	ldrb.w	r5, [r5, #-1]
 8001194:	3d30      	subs	r5, #48	; 0x30
 8001196:	703d      	strb	r5, [r7, #0]
 8001198:	2c02      	cmp	r4, #2
 800119a:	4d56      	ldr	r5, [pc, #344]	; (80012f4 <IOT_PROCESS+0x214>)
 800119c:	d051      	beq.n	8001242 <IOT_PROCESS+0x162>
 800119e:	2c03      	cmp	r4, #3
 80011a0:	d05a      	beq.n	8001258 <IOT_PROCESS+0x178>
 80011a2:	2c01      	cmp	r4, #1
 80011a4:	d104      	bne.n	80011b0 <IOT_PROCESS+0xd0>
 80011a6:	4419      	add	r1, r3
 80011a8:	f811 1c01 	ldrb.w	r1, [r1, #-1]
 80011ac:	3930      	subs	r1, #48	; 0x30
 80011ae:	7029      	strb	r1, [r5, #0]
 80011b0:	2802      	cmp	r0, #2
 80011b2:	4951      	ldr	r1, [pc, #324]	; (80012f8 <IOT_PROCESS+0x218>)
 80011b4:	d063      	beq.n	800127e <IOT_PROCESS+0x19e>
 80011b6:	2803      	cmp	r0, #3
 80011b8:	d06c      	beq.n	8001294 <IOT_PROCESS+0x1b4>
 80011ba:	2801      	cmp	r0, #1
 80011bc:	d104      	bne.n	80011c8 <IOT_PROCESS+0xe8>
 80011be:	4413      	add	r3, r2
 80011c0:	f813 3c02 	ldrb.w	r3, [r3, #-2]
 80011c4:	3b30      	subs	r3, #48	; 0x30
 80011c6:	700b      	strb	r3, [r1, #0]
 80011c8:	4b4c      	ldr	r3, [pc, #304]	; (80012fc <IOT_PROCESS+0x21c>)
 80011ca:	783a      	ldrb	r2, [r7, #0]
 80011cc:	701a      	strb	r2, [r3, #0]
 80011ce:	782a      	ldrb	r2, [r5, #0]
 80011d0:	705a      	strb	r2, [r3, #1]
 80011d2:	780a      	ldrb	r2, [r1, #0]
 80011d4:	709a      	strb	r2, [r3, #2]
 80011d6:	b003      	add	sp, #12
 80011d8:	e8bd 8ff0 	ldmia.w	sp!, {r4, r5, r6, r7, r8, r9, sl, fp, pc}
 80011dc:	f813 700a 	ldrb.w	r7, [r3, sl]
 80011e0:	2f52      	cmp	r7, #82	; 0x52
 80011e2:	d008      	beq.n	80011f6 <IOT_PROCESS+0x116>
 80011e4:	2f47      	cmp	r7, #71	; 0x47
 80011e6:	d00a      	beq.n	80011fe <IOT_PROCESS+0x11e>
 80011e8:	2f42      	cmp	r7, #66	; 0x42
 80011ea:	bf04      	itt	eq
 80011ec:	4655      	moveq	r5, sl
 80011ee:	2601      	moveq	r6, #1
 80011f0:	3101      	adds	r1, #1
 80011f2:	2701      	movs	r7, #1
 80011f4:	e79d      	b.n	8001132 <IOT_PROCESS+0x52>
 80011f6:	46d6      	mov	lr, sl
 80011f8:	f04f 0801 	mov.w	r8, #1
 80011fc:	e7f8      	b.n	80011f0 <IOT_PROCESS+0x110>
 80011fe:	2701      	movs	r7, #1
 8001200:	46d4      	mov	ip, sl
 8001202:	9700      	str	r7, [sp, #0]
 8001204:	e7f4      	b.n	80011f0 <IOT_PROCESS+0x110>
 8001206:	441d      	add	r5, r3
 8001208:	f815 6c02 	ldrb.w	r6, [r5, #-2]
 800120c:	f815 5c01 	ldrb.w	r5, [r5, #-1]
 8001210:	eb06 0686 	add.w	r6, r6, r6, lsl #2
 8001214:	3d10      	subs	r5, #16
 8001216:	eb05 0546 	add.w	r5, r5, r6, lsl #1
 800121a:	e7bc      	b.n	8001196 <IOT_PROCESS+0xb6>
 800121c:	441d      	add	r5, r3
 800121e:	f815 6c02 	ldrb.w	r6, [r5, #-2]
 8001222:	eb06 0c86 	add.w	ip, r6, r6, lsl #2
 8001226:	f815 6c01 	ldrb.w	r6, [r5, #-1]
 800122a:	f815 5c03 	ldrb.w	r5, [r5, #-3]
 800122e:	3630      	adds	r6, #48	; 0x30
 8001230:	eb05 0585 	add.w	r5, r5, r5, lsl #2
 8001234:	eb06 064c 	add.w	r6, r6, ip, lsl #1
 8001238:	eb05 0585 	add.w	r5, r5, r5, lsl #2
 800123c:	eb06 0585 	add.w	r5, r6, r5, lsl #2
 8001240:	e7a9      	b.n	8001196 <IOT_PROCESS+0xb6>
 8001242:	4419      	add	r1, r3
 8001244:	f811 4c02 	ldrb.w	r4, [r1, #-2]
 8001248:	f811 1c01 	ldrb.w	r1, [r1, #-1]
 800124c:	eb04 0484 	add.w	r4, r4, r4, lsl #2
 8001250:	3910      	subs	r1, #16
 8001252:	eb01 0144 	add.w	r1, r1, r4, lsl #1
 8001256:	e7aa      	b.n	80011ae <IOT_PROCESS+0xce>
 8001258:	4419      	add	r1, r3
 800125a:	f811 4c02 	ldrb.w	r4, [r1, #-2]
 800125e:	eb04 0684 	add.w	r6, r4, r4, lsl #2
 8001262:	f811 4c01 	ldrb.w	r4, [r1, #-1]
 8001266:	f811 1c03 	ldrb.w	r1, [r1, #-3]
 800126a:	3430      	adds	r4, #48	; 0x30
 800126c:	eb01 0181 	add.w	r1, r1, r1, lsl #2
 8001270:	eb04 0446 	add.w	r4, r4, r6, lsl #1
 8001274:	eb01 0181 	add.w	r1, r1, r1, lsl #2
 8001278:	eb04 0181 	add.w	r1, r4, r1, lsl #2
 800127c:	e797      	b.n	80011ae <IOT_PROCESS+0xce>
 800127e:	4413      	add	r3, r2
 8001280:	f813 0c03 	ldrb.w	r0, [r3, #-3]
 8001284:	f813 3c02 	ldrb.w	r3, [r3, #-2]
 8001288:	eb00 0080 	add.w	r0, r0, r0, lsl #2
 800128c:	3b10      	subs	r3, #16
 800128e:	eb03 0340 	add.w	r3, r3, r0, lsl #1
 8001292:	e798      	b.n	80011c6 <IOT_PROCESS+0xe6>
 8001294:	4413      	add	r3, r2
 8001296:	f813 2c03 	ldrb.w	r2, [r3, #-3]
 800129a:	eb02 0082 	add.w	r0, r2, r2, lsl #2
 800129e:	f813 2c02 	ldrb.w	r2, [r3, #-2]
 80012a2:	f813 3c04 	ldrb.w	r3, [r3, #-4]
 80012a6:	3230      	adds	r2, #48	; 0x30
 80012a8:	eb03 0383 	add.w	r3, r3, r3, lsl #2
 80012ac:	eb02 0240 	add.w	r2, r2, r0, lsl #1
 80012b0:	eb03 0383 	add.w	r3, r3, r3, lsl #2
 80012b4:	eb02 0383 	add.w	r3, r2, r3, lsl #2
 80012b8:	e785      	b.n	80011c6 <IOT_PROCESS+0xe6>
 80012ba:	2200      	movs	r2, #0
 80012bc:	4b10      	ldr	r3, [pc, #64]	; (8001300 <IOT_PROCESS+0x220>)
 80012be:	701a      	strb	r2, [r3, #0]
 80012c0:	780b      	ldrb	r3, [r1, #0]
 80012c2:	f362 0382 	bfi	r3, r2, #2, #1
 80012c6:	700b      	strb	r3, [r1, #0]
 80012c8:	e785      	b.n	80011d6 <IOT_PROCESS+0xf6>
 80012ca:	bf00      	nop
 80012cc:	20000a6c 	.word	0x20000a6c
 80012d0:	20000151 	.word	0x20000151
 80012d4:	20000600 	.word	0x20000600
 80012d8:	20000a29 	.word	0x20000a29
 80012dc:	2000072d 	.word	0x2000072d
 80012e0:	2000072e 	.word	0x2000072e
 80012e4:	20000810 	.word	0x20000810
 80012e8:	200005bc 	.word	0x200005bc
 80012ec:	200008da 	.word	0x200008da
 80012f0:	20000dae 	.word	0x20000dae
 80012f4:	20000da8 	.word	0x20000da8
 80012f8:	20000db0 	.word	0x20000db0
 80012fc:	2000000a 	.word	0x2000000a
 8001300:	20000740 	.word	0x20000740
 8001304:	200007c9 	.word	0x200007c9

08001308 <main>:
 8001308:	2400      	movs	r4, #0
 800130a:	b580      	push	{r7, lr}
 800130c:	f000 fc36 	bl	8001b7c <HAL_Init>
 8001310:	f7ff fd28 	bl	8000d64 <SystemClock_Config>
 8001314:	f7ff fc40 	bl	8000b98 <MX_GPIO_Init>
 8001318:	f000 f8fa 	bl	8001510 <MX_TIM2_Init>
 800131c:	f000 f960 	bl	80015e0 <MX_TIM4_Init>
 8001320:	f000 fa22 	bl	8001768 <MX_USART2_UART_Init>
 8001324:	f000 fa3c 	bl	80017a0 <MX_USART3_UART_Init>
 8001328:	f000 f926 	bl	8001578 <MX_TIM3_Init>
 800132c:	f000 fac8 	bl	80018c0 <MX_USB_PCD_Init>
 8001330:	f000 f98a 	bl	8001648 <MX_TIM5_Init>
 8001334:	4831      	ldr	r0, [pc, #196]	; (80013fc <main+0xf4>)
 8001336:	f001 f9ed 	bl	8002714 <HAL_TIM_Base_Start_IT>
 800133a:	4831      	ldr	r0, [pc, #196]	; (8001400 <main+0xf8>)
 800133c:	f001 f9ea 	bl	8002714 <HAL_TIM_Base_Start_IT>
 8001340:	4b30      	ldr	r3, [pc, #192]	; (8001404 <main+0xfc>)
 8001342:	4a31      	ldr	r2, [pc, #196]	; (8001408 <main+0x100>)
 8001344:	701c      	strb	r4, [r3, #0]
 8001346:	4b31      	ldr	r3, [pc, #196]	; (800140c <main+0x104>)
 8001348:	4931      	ldr	r1, [pc, #196]	; (8001410 <main+0x108>)
 800134a:	701c      	strb	r4, [r3, #0]
 800134c:	4b31      	ldr	r3, [pc, #196]	; (8001414 <main+0x10c>)
 800134e:	4832      	ldr	r0, [pc, #200]	; (8001418 <main+0x110>)
 8001350:	701c      	strb	r4, [r3, #0]
 8001352:	7813      	ldrb	r3, [r2, #0]
 8001354:	4f31      	ldr	r7, [pc, #196]	; (800141c <main+0x114>)
 8001356:	f043 0304 	orr.w	r3, r3, #4
 800135a:	7013      	strb	r3, [r2, #0]
 800135c:	4b30      	ldr	r3, [pc, #192]	; (8001420 <main+0x118>)
 800135e:	220d      	movs	r2, #13
 8001360:	701c      	strb	r4, [r3, #0]
 8001362:	f001 fc3d 	bl	8002be0 <HAL_UART_Receive_IT>
 8001366:	f000 fad7 	bl	8001918 <reset_ws2812>
 800136a:	f000 fae1 	bl	8001930 <reset_ws2812_1>
 800136e:	f000 fba5 	bl	8001abc <RGB_close1>
 8001372:	f7ff fbcd 	bl	8000b10 <lcd_init>
 8001376:	482b      	ldr	r0, [pc, #172]	; (8001424 <main+0x11c>)
 8001378:	f7ff fb9b 	bl	8000ab2 <TFT_Disp128160>
 800137c:	4622      	mov	r2, r4
 800137e:	2102      	movs	r1, #2
 8001380:	4829      	ldr	r0, [pc, #164]	; (8001428 <main+0x120>)
 8001382:	f000 fe3b 	bl	8001ffc <HAL_GPIO_WritePin>
 8001386:	2001      	movs	r0, #1
 8001388:	f000 fc1c 	bl	8001bc4 <HAL_Delay>
 800138c:	f7fe ff6c 	bl	8000268 <CC2520_GPIO_Config>
 8001390:	f7fe ffb2 	bl	80002f8 <CC2520_SPI_Init>
 8001394:	4620      	mov	r0, r4
 8001396:	f7ff f8e3 	bl	8000560 <CC2520_Init>
 800139a:	2046      	movs	r0, #70	; 0x46
 800139c:	f7ff f8d0 	bl	8000540 <CC2520_Command>
 80013a0:	4a22      	ldr	r2, [pc, #136]	; (800142c <main+0x124>)
 80013a2:	4d21      	ldr	r5, [pc, #132]	; (8001428 <main+0x120>)
 80013a4:	7813      	ldrb	r3, [r2, #0]
 80013a6:	f364 0382 	bfi	r3, r4, #2, #1
 80013aa:	7013      	strb	r3, [r2, #0]
 80013ac:	4e20      	ldr	r6, [pc, #128]	; (8001430 <main+0x128>)
 80013ae:	4c21      	ldr	r4, [pc, #132]	; (8001434 <main+0x12c>)
 80013b0:	8833      	ldrh	r3, [r6, #0]
 80013b2:	2bfa      	cmp	r3, #250	; 0xfa
 80013b4:	d908      	bls.n	80013c8 <main+0xc0>
 80013b6:	f7ff fa07 	bl	80007c8 <temp_send>
 80013ba:	f44f 6180 	mov.w	r1, #1024	; 0x400
 80013be:	4638      	mov	r0, r7
 80013c0:	f000 fe21 	bl	8002006 <HAL_GPIO_TogglePin>
 80013c4:	2300      	movs	r3, #0
 80013c6:	8033      	strh	r3, [r6, #0]
 80013c8:	7823      	ldrb	r3, [r4, #0]
 80013ca:	09db      	lsrs	r3, r3, #7
 80013cc:	d0f0      	beq.n	80013b0 <main+0xa8>
 80013ce:	7823      	ldrb	r3, [r4, #0]
 80013d0:	2201      	movs	r2, #1
 80013d2:	f36f 13c7 	bfc	r3, #7, #1
 80013d6:	2102      	movs	r1, #2
 80013d8:	4628      	mov	r0, r5
 80013da:	7023      	strb	r3, [r4, #0]
 80013dc:	f000 fe0e 	bl	8001ffc <HAL_GPIO_WritePin>
 80013e0:	2002      	movs	r0, #2
 80013e2:	f000 fbef 	bl	8001bc4 <HAL_Delay>
 80013e6:	f7ff fe7b 	bl	80010e0 <IOT_PROCESS>
 80013ea:	4628      	mov	r0, r5
 80013ec:	2200      	movs	r2, #0
 80013ee:	2102      	movs	r1, #2
 80013f0:	f000 fe04 	bl	8001ffc <HAL_GPIO_WritePin>
 80013f4:	2001      	movs	r0, #1
 80013f6:	f000 fbe5 	bl	8001bc4 <HAL_Delay>
 80013fa:	e7d7      	b.n	80013ac <main+0xa4>
 80013fc:	20000788 	.word	0x20000788
 8001400:	200005c0 	.word	0x200005c0
 8001404:	20000dae 	.word	0x20000dae
 8001408:	20000151 	.word	0x20000151
 800140c:	20000da8 	.word	0x20000da8
 8001410:	20000812 	.word	0x20000812
 8001414:	20000db0 	.word	0x20000db0
 8001418:	20000604 	.word	0x20000604
 800141c:	40010800 	.word	0x40010800
 8001420:	2000046a 	.word	0x2000046a
 8001424:	08002fc8 	.word	0x08002fc8
 8001428:	40010c00 	.word	0x40010c00
 800142c:	20000046 	.word	0x20000046
 8001430:	2000052c 	.word	0x2000052c
 8001434:	20000045 	.word	0x20000045

08001438 <Error_Handler>:
 8001438:	4770      	bx	lr
	...

0800143c <HAL_MspInit>:
 800143c:	4b0e      	ldr	r3, [pc, #56]	; (8001478 <HAL_MspInit+0x3c>)
 800143e:	b082      	sub	sp, #8
 8001440:	699a      	ldr	r2, [r3, #24]
 8001442:	f042 0201 	orr.w	r2, r2, #1
 8001446:	619a      	str	r2, [r3, #24]
 8001448:	699a      	ldr	r2, [r3, #24]
 800144a:	f002 0201 	and.w	r2, r2, #1
 800144e:	9200      	str	r2, [sp, #0]
 8001450:	9a00      	ldr	r2, [sp, #0]
 8001452:	69da      	ldr	r2, [r3, #28]
 8001454:	f042 5280 	orr.w	r2, r2, #268435456	; 0x10000000
 8001458:	61da      	str	r2, [r3, #28]
 800145a:	69db      	ldr	r3, [r3, #28]
 800145c:	4a07      	ldr	r2, [pc, #28]	; (800147c <HAL_MspInit+0x40>)
 800145e:	f003 5380 	and.w	r3, r3, #268435456	; 0x10000000
 8001462:	9301      	str	r3, [sp, #4]
 8001464:	9b01      	ldr	r3, [sp, #4]
 8001466:	6853      	ldr	r3, [r2, #4]
 8001468:	f023 63e0 	bic.w	r3, r3, #117440512	; 0x7000000
 800146c:	f043 7300 	orr.w	r3, r3, #33554432	; 0x2000000
 8001470:	6053      	str	r3, [r2, #4]
 8001472:	b002      	add	sp, #8
 8001474:	4770      	bx	lr
 8001476:	bf00      	nop
 8001478:	40021000 	.word	0x40021000
 800147c:	40010000 	.word	0x40010000

08001480 <NMI_Handler>:
 8001480:	4770      	bx	lr

08001482 <HardFault_Handler>:
 8001482:	e7fe      	b.n	8001482 <HardFault_Handler>

08001484 <MemManage_Handler>:
 8001484:	e7fe      	b.n	8001484 <MemManage_Handler>

08001486 <BusFault_Handler>:
 8001486:	e7fe      	b.n	8001486 <BusFault_Handler>

08001488 <UsageFault_Handler>:
 8001488:	e7fe      	b.n	8001488 <UsageFault_Handler>

0800148a <SVC_Handler>:
 800148a:	4770      	bx	lr

0800148c <DebugMon_Handler>:
 800148c:	4770      	bx	lr

0800148e <PendSV_Handler>:
 800148e:	4770      	bx	lr

08001490 <SysTick_Handler>:
 8001490:	f000 bb86 	b.w	8001ba0 <HAL_IncTick>

08001494 <TIM2_IRQHandler>:
 8001494:	4801      	ldr	r0, [pc, #4]	; (800149c <TIM2_IRQHandler+0x8>)
 8001496:	f001 b966 	b.w	8002766 <HAL_TIM_IRQHandler>
 800149a:	bf00      	nop
 800149c:	200009e8 	.word	0x200009e8

080014a0 <TIM3_IRQHandler>:
 80014a0:	4801      	ldr	r0, [pc, #4]	; (80014a8 <TIM3_IRQHandler+0x8>)
 80014a2:	f001 b960 	b.w	8002766 <HAL_TIM_IRQHandler>
 80014a6:	bf00      	nop
 80014a8:	20000788 	.word	0x20000788

080014ac <TIM4_IRQHandler>:
 80014ac:	4801      	ldr	r0, [pc, #4]	; (80014b4 <TIM4_IRQHandler+0x8>)
 80014ae:	f001 b95a 	b.w	8002766 <HAL_TIM_IRQHandler>
 80014b2:	bf00      	nop
 80014b4:	200005c0 	.word	0x200005c0

080014b8 <USART3_IRQHandler>:
 80014b8:	4801      	ldr	r0, [pc, #4]	; (80014c0 <USART3_IRQHandler+0x8>)
 80014ba:	f001 bbf5 	b.w	8002ca8 <HAL_UART_IRQHandler>
 80014be:	bf00      	nop
 80014c0:	20000604 	.word	0x20000604

080014c4 <SystemInit>:
 80014c4:	4b0f      	ldr	r3, [pc, #60]	; (8001504 <SystemInit+0x40>)
 80014c6:	681a      	ldr	r2, [r3, #0]
 80014c8:	f042 0201 	orr.w	r2, r2, #1
 80014cc:	601a      	str	r2, [r3, #0]
 80014ce:	6859      	ldr	r1, [r3, #4]
 80014d0:	4a0d      	ldr	r2, [pc, #52]	; (8001508 <SystemInit+0x44>)
 80014d2:	400a      	ands	r2, r1
 80014d4:	605a      	str	r2, [r3, #4]
 80014d6:	681a      	ldr	r2, [r3, #0]
 80014d8:	f022 7284 	bic.w	r2, r2, #17301504	; 0x1080000
 80014dc:	f422 3280 	bic.w	r2, r2, #65536	; 0x10000
 80014e0:	601a      	str	r2, [r3, #0]
 80014e2:	681a      	ldr	r2, [r3, #0]
 80014e4:	f422 2280 	bic.w	r2, r2, #262144	; 0x40000
 80014e8:	601a      	str	r2, [r3, #0]
 80014ea:	685a      	ldr	r2, [r3, #4]
 80014ec:	f422 02fe 	bic.w	r2, r2, #8323072	; 0x7f0000
 80014f0:	605a      	str	r2, [r3, #4]
 80014f2:	f44f 021f 	mov.w	r2, #10420224	; 0x9f0000
 80014f6:	609a      	str	r2, [r3, #8]
 80014f8:	f04f 6200 	mov.w	r2, #134217728	; 0x8000000
 80014fc:	4b03      	ldr	r3, [pc, #12]	; (800150c <SystemInit+0x48>)
 80014fe:	609a      	str	r2, [r3, #8]
 8001500:	4770      	bx	lr
 8001502:	bf00      	nop
 8001504:	40021000 	.word	0x40021000
 8001508:	f8ff0000 	.word	0xf8ff0000
 800150c:	e000ed00 	.word	0xe000ed00

08001510 <MX_TIM2_Init>:
 8001510:	b57f      	push	{r0, r1, r2, r3, r4, r5, r6, lr}
 8001512:	2210      	movs	r2, #16
 8001514:	2100      	movs	r1, #0
 8001516:	a802      	add	r0, sp, #8
 8001518:	f001 fcc2 	bl	8002ea0 <memset>
 800151c:	f641 421f 	movw	r2, #7199	; 0x1c1f
 8001520:	f04f 4180 	mov.w	r1, #1073741824	; 0x40000000
 8001524:	4813      	ldr	r0, [pc, #76]	; (8001574 <MX_TIM2_Init+0x64>)
 8001526:	2300      	movs	r3, #0
 8001528:	e9c0 1200 	strd	r1, r2, [r0]
 800152c:	22c7      	movs	r2, #199	; 0xc7
 800152e:	e9cd 3300 	strd	r3, r3, [sp]
 8001532:	6083      	str	r3, [r0, #8]
 8001534:	e9c0 2303 	strd	r2, r3, [r0, #12]
 8001538:	6183      	str	r3, [r0, #24]
 800153a:	f001 fa03 	bl	8002944 <HAL_TIM_Base_Init>
 800153e:	b108      	cbz	r0, 8001544 <MX_TIM2_Init+0x34>
 8001540:	f7ff ff7a 	bl	8001438 <Error_Handler>
 8001544:	f44f 5380 	mov.w	r3, #4096	; 0x1000
 8001548:	a902      	add	r1, sp, #8
 800154a:	480a      	ldr	r0, [pc, #40]	; (8001574 <MX_TIM2_Init+0x64>)
 800154c:	9302      	str	r3, [sp, #8]
 800154e:	f001 fa1d 	bl	800298c <HAL_TIM_ConfigClockSource>
 8001552:	b108      	cbz	r0, 8001558 <MX_TIM2_Init+0x48>
 8001554:	f7ff ff70 	bl	8001438 <Error_Handler>
 8001558:	2300      	movs	r3, #0
 800155a:	4669      	mov	r1, sp
 800155c:	4805      	ldr	r0, [pc, #20]	; (8001574 <MX_TIM2_Init+0x64>)
 800155e:	e9cd 3300 	strd	r3, r3, [sp]
 8001562:	f001 faa7 	bl	8002ab4 <HAL_TIMEx_MasterConfigSynchronization>
 8001566:	b108      	cbz	r0, 800156c <MX_TIM2_Init+0x5c>
 8001568:	f7ff ff66 	bl	8001438 <Error_Handler>
 800156c:	b007      	add	sp, #28
 800156e:	f85d fb04 	ldr.w	pc, [sp], #4
 8001572:	bf00      	nop
 8001574:	200009e8 	.word	0x200009e8

08001578 <MX_TIM3_Init>:
 8001578:	b57f      	push	{r0, r1, r2, r3, r4, r5, r6, lr}
 800157a:	2210      	movs	r2, #16
 800157c:	2100      	movs	r1, #0
 800157e:	a802      	add	r0, sp, #8
 8001580:	f001 fc8e 	bl	8002ea0 <memset>
 8001584:	f641 421f 	movw	r2, #7199	; 0x1c1f
 8001588:	4813      	ldr	r0, [pc, #76]	; (80015d8 <MX_TIM3_Init+0x60>)
 800158a:	4914      	ldr	r1, [pc, #80]	; (80015dc <MX_TIM3_Init+0x64>)
 800158c:	2300      	movs	r3, #0
 800158e:	e9c0 1200 	strd	r1, r2, [r0]
 8001592:	22c7      	movs	r2, #199	; 0xc7
 8001594:	e9cd 3300 	strd	r3, r3, [sp]
 8001598:	6083      	str	r3, [r0, #8]
 800159a:	e9c0 2303 	strd	r2, r3, [r0, #12]
 800159e:	6183      	str	r3, [r0, #24]
 80015a0:	f001 f9d0 	bl	8002944 <HAL_TIM_Base_Init>
 80015a4:	b108      	cbz	r0, 80015aa <MX_TIM3_Init+0x32>
 80015a6:	f7ff ff47 	bl	8001438 <Error_Handler>
 80015aa:	f44f 5380 	mov.w	r3, #4096	; 0x1000
 80015ae:	a902      	add	r1, sp, #8
 80015b0:	4809      	ldr	r0, [pc, #36]	; (80015d8 <MX_TIM3_Init+0x60>)
 80015b2:	9302      	str	r3, [sp, #8]
 80015b4:	f001 f9ea 	bl	800298c <HAL_TIM_ConfigClockSource>
 80015b8:	b108      	cbz	r0, 80015be <MX_TIM3_Init+0x46>
 80015ba:	f7ff ff3d 	bl	8001438 <Error_Handler>
 80015be:	2300      	movs	r3, #0
 80015c0:	4669      	mov	r1, sp
 80015c2:	4805      	ldr	r0, [pc, #20]	; (80015d8 <MX_TIM3_Init+0x60>)
 80015c4:	e9cd 3300 	strd	r3, r3, [sp]
 80015c8:	f001 fa74 	bl	8002ab4 <HAL_TIMEx_MasterConfigSynchronization>
 80015cc:	b108      	cbz	r0, 80015d2 <MX_TIM3_Init+0x5a>
 80015ce:	f7ff ff33 	bl	8001438 <Error_Handler>
 80015d2:	b007      	add	sp, #28
 80015d4:	f85d fb04 	ldr.w	pc, [sp], #4
 80015d8:	20000788 	.word	0x20000788
 80015dc:	40000400 	.word	0x40000400

080015e0 <MX_TIM4_Init>:
 80015e0:	b57f      	push	{r0, r1, r2, r3, r4, r5, r6, lr}
 80015e2:	2210      	movs	r2, #16
 80015e4:	2100      	movs	r1, #0
 80015e6:	a802      	add	r0, sp, #8
 80015e8:	f001 fc5a 	bl	8002ea0 <memset>
 80015ec:	f641 421f 	movw	r2, #7199	; 0x1c1f
 80015f0:	4813      	ldr	r0, [pc, #76]	; (8001640 <MX_TIM4_Init+0x60>)
 80015f2:	4914      	ldr	r1, [pc, #80]	; (8001644 <MX_TIM4_Init+0x64>)
 80015f4:	2300      	movs	r3, #0
 80015f6:	e9c0 1200 	strd	r1, r2, [r0]
 80015fa:	22c7      	movs	r2, #199	; 0xc7
 80015fc:	e9cd 3300 	strd	r3, r3, [sp]
 8001600:	6083      	str	r3, [r0, #8]
 8001602:	e9c0 2303 	strd	r2, r3, [r0, #12]
 8001606:	6183      	str	r3, [r0, #24]
 8001608:	f001 f99c 	bl	8002944 <HAL_TIM_Base_Init>
 800160c:	b108      	cbz	r0, 8001612 <MX_TIM4_Init+0x32>
 800160e:	f7ff ff13 	bl	8001438 <Error_Handler>
 8001612:	f44f 5380 	mov.w	r3, #4096	; 0x1000
 8001616:	a902      	add	r1, sp, #8
 8001618:	4809      	ldr	r0, [pc, #36]	; (8001640 <MX_TIM4_Init+0x60>)
 800161a:	9302      	str	r3, [sp, #8]
 800161c:	f001 f9b6 	bl	800298c <HAL_TIM_ConfigClockSource>
 8001620:	b108      	cbz	r0, 8001626 <MX_TIM4_Init+0x46>
 8001622:	f7ff ff09 	bl	8001438 <Error_Handler>
 8001626:	2300      	movs	r3, #0
 8001628:	4669      	mov	r1, sp
 800162a:	4805      	ldr	r0, [pc, #20]	; (8001640 <MX_TIM4_Init+0x60>)
 800162c:	e9cd 3300 	strd	r3, r3, [sp]
 8001630:	f001 fa40 	bl	8002ab4 <HAL_TIMEx_MasterConfigSynchronization>
 8001634:	b108      	cbz	r0, 800163a <MX_TIM4_Init+0x5a>
 8001636:	f7ff feff 	bl	8001438 <Error_Handler>
 800163a:	b007      	add	sp, #28
 800163c:	f85d fb04 	ldr.w	pc, [sp], #4
 8001640:	200005c0 	.word	0x200005c0
 8001644:	40000800 	.word	0x40000800

08001648 <MX_TIM5_Init>:
 8001648:	b57f      	push	{r0, r1, r2, r3, r4, r5, r6, lr}
 800164a:	2210      	movs	r2, #16
 800164c:	2100      	movs	r1, #0
 800164e:	a802      	add	r0, sp, #8
 8001650:	f001 fc26 	bl	8002ea0 <memset>
 8001654:	f641 421f 	movw	r2, #7199	; 0x1c1f
 8001658:	4813      	ldr	r0, [pc, #76]	; (80016a8 <MX_TIM5_Init+0x60>)
 800165a:	4914      	ldr	r1, [pc, #80]	; (80016ac <MX_TIM5_Init+0x64>)
 800165c:	2300      	movs	r3, #0
 800165e:	e9c0 1200 	strd	r1, r2, [r0]
 8001662:	22c7      	movs	r2, #199	; 0xc7
 8001664:	e9cd 3300 	strd	r3, r3, [sp]
 8001668:	6083      	str	r3, [r0, #8]
 800166a:	e9c0 2303 	strd	r2, r3, [r0, #12]
 800166e:	6183      	str	r3, [r0, #24]
 8001670:	f001 f968 	bl	8002944 <HAL_TIM_Base_Init>
 8001674:	b108      	cbz	r0, 800167a <MX_TIM5_Init+0x32>
 8001676:	f7ff fedf 	bl	8001438 <Error_Handler>
 800167a:	f44f 5380 	mov.w	r3, #4096	; 0x1000
 800167e:	a902      	add	r1, sp, #8
 8001680:	4809      	ldr	r0, [pc, #36]	; (80016a8 <MX_TIM5_Init+0x60>)
 8001682:	9302      	str	r3, [sp, #8]
 8001684:	f001 f982 	bl	800298c <HAL_TIM_ConfigClockSource>
 8001688:	b108      	cbz	r0, 800168e <MX_TIM5_Init+0x46>
 800168a:	f7ff fed5 	bl	8001438 <Error_Handler>
 800168e:	2300      	movs	r3, #0
 8001690:	4669      	mov	r1, sp
 8001692:	4805      	ldr	r0, [pc, #20]	; (80016a8 <MX_TIM5_Init+0x60>)
 8001694:	e9cd 3300 	strd	r3, r3, [sp]
 8001698:	f001 fa0c 	bl	8002ab4 <HAL_TIMEx_MasterConfigSynchronization>
 800169c:	b108      	cbz	r0, 80016a2 <MX_TIM5_Init+0x5a>
 800169e:	f7ff fecb 	bl	8001438 <Error_Handler>
 80016a2:	b007      	add	sp, #28
 80016a4:	f85d fb04 	ldr.w	pc, [sp], #4
 80016a8:	20000744 	.word	0x20000744
 80016ac:	40000c00 	.word	0x40000c00

080016b0 <HAL_TIM_Base_MspInit>:
 80016b0:	b51f      	push	{r0, r1, r2, r3, r4, lr}
 80016b2:	6803      	ldr	r3, [r0, #0]
 80016b4:	f1b3 4f80 	cmp.w	r3, #1073741824	; 0x40000000
 80016b8:	d115      	bne.n	80016e6 <HAL_TIM_Base_MspInit+0x36>
 80016ba:	f503 3304 	add.w	r3, r3, #135168	; 0x21000
 80016be:	69da      	ldr	r2, [r3, #28]
 80016c0:	201c      	movs	r0, #28
 80016c2:	f042 0201 	orr.w	r2, r2, #1
 80016c6:	61da      	str	r2, [r3, #28]
 80016c8:	69db      	ldr	r3, [r3, #28]
 80016ca:	2200      	movs	r2, #0
 80016cc:	f003 0301 	and.w	r3, r3, #1
 80016d0:	9300      	str	r3, [sp, #0]
 80016d2:	2102      	movs	r1, #2
 80016d4:	9b00      	ldr	r3, [sp, #0]
 80016d6:	f000 fa99 	bl	8001c0c <HAL_NVIC_SetPriority>
 80016da:	201c      	movs	r0, #28
 80016dc:	b005      	add	sp, #20
 80016de:	f85d eb04 	ldr.w	lr, [sp], #4
 80016e2:	f000 bac7 	b.w	8001c74 <HAL_NVIC_EnableIRQ>
 80016e6:	4a1c      	ldr	r2, [pc, #112]	; (8001758 <HAL_TIM_Base_MspInit+0xa8>)
 80016e8:	4293      	cmp	r3, r2
 80016ea:	d110      	bne.n	800170e <HAL_TIM_Base_MspInit+0x5e>
 80016ec:	4b1b      	ldr	r3, [pc, #108]	; (800175c <HAL_TIM_Base_MspInit+0xac>)
 80016ee:	201d      	movs	r0, #29
 80016f0:	69da      	ldr	r2, [r3, #28]
 80016f2:	f042 0202 	orr.w	r2, r2, #2
 80016f6:	61da      	str	r2, [r3, #28]
 80016f8:	2200      	movs	r2, #0
 80016fa:	69db      	ldr	r3, [r3, #28]
 80016fc:	4611      	mov	r1, r2
 80016fe:	f003 0302 	and.w	r3, r3, #2
 8001702:	9301      	str	r3, [sp, #4]
 8001704:	9b01      	ldr	r3, [sp, #4]
 8001706:	f000 fa81 	bl	8001c0c <HAL_NVIC_SetPriority>
 800170a:	201d      	movs	r0, #29
 800170c:	e7e6      	b.n	80016dc <HAL_TIM_Base_MspInit+0x2c>
 800170e:	4a14      	ldr	r2, [pc, #80]	; (8001760 <HAL_TIM_Base_MspInit+0xb0>)
 8001710:	4293      	cmp	r3, r2
 8001712:	d110      	bne.n	8001736 <HAL_TIM_Base_MspInit+0x86>
 8001714:	4b11      	ldr	r3, [pc, #68]	; (800175c <HAL_TIM_Base_MspInit+0xac>)
 8001716:	201e      	movs	r0, #30
 8001718:	69da      	ldr	r2, [r3, #28]
 800171a:	f042 0204 	orr.w	r2, r2, #4
 800171e:	61da      	str	r2, [r3, #28]
 8001720:	2200      	movs	r2, #0
 8001722:	69db      	ldr	r3, [r3, #28]
 8001724:	4611      	mov	r1, r2
 8001726:	f003 0304 	and.w	r3, r3, #4
 800172a:	9302      	str	r3, [sp, #8]
 800172c:	9b02      	ldr	r3, [sp, #8]
 800172e:	f000 fa6d 	bl	8001c0c <HAL_NVIC_SetPriority>
 8001732:	201e      	movs	r0, #30
 8001734:	e7d2      	b.n	80016dc <HAL_TIM_Base_MspInit+0x2c>
 8001736:	4a0b      	ldr	r2, [pc, #44]	; (8001764 <HAL_TIM_Base_MspInit+0xb4>)
 8001738:	4293      	cmp	r3, r2
 800173a:	d109      	bne.n	8001750 <HAL_TIM_Base_MspInit+0xa0>
 800173c:	4b07      	ldr	r3, [pc, #28]	; (800175c <HAL_TIM_Base_MspInit+0xac>)
 800173e:	69da      	ldr	r2, [r3, #28]
 8001740:	f042 0208 	orr.w	r2, r2, #8
 8001744:	61da      	str	r2, [r3, #28]
 8001746:	69db      	ldr	r3, [r3, #28]
 8001748:	f003 0308 	and.w	r3, r3, #8
 800174c:	9303      	str	r3, [sp, #12]
 800174e:	9b03      	ldr	r3, [sp, #12]
 8001750:	b005      	add	sp, #20
 8001752:	f85d fb04 	ldr.w	pc, [sp], #4
 8001756:	bf00      	nop
 8001758:	40000400 	.word	0x40000400
 800175c:	40021000 	.word	0x40021000
 8001760:	40000800 	.word	0x40000800
 8001764:	40000c00 	.word	0x40000c00

08001768 <MX_USART2_UART_Init>:
 8001768:	b508      	push	{r3, lr}
 800176a:	f44f 4396 	mov.w	r3, #19200	; 0x4b00
 800176e:	480a      	ldr	r0, [pc, #40]	; (8001798 <MX_USART2_UART_Init+0x30>)
 8001770:	4a0a      	ldr	r2, [pc, #40]	; (800179c <MX_USART2_UART_Init+0x34>)
 8001772:	e9c0 2300 	strd	r2, r3, [r0]
 8001776:	2300      	movs	r3, #0
 8001778:	220c      	movs	r2, #12
 800177a:	e9c0 3302 	strd	r3, r3, [r0, #8]
 800177e:	6103      	str	r3, [r0, #16]
 8001780:	e9c0 2305 	strd	r2, r3, [r0, #20]
 8001784:	61c3      	str	r3, [r0, #28]
 8001786:	f001 f9fd 	bl	8002b84 <HAL_UART_Init>
 800178a:	b118      	cbz	r0, 8001794 <MX_USART2_UART_Init+0x2c>
 800178c:	e8bd 4008 	ldmia.w	sp!, {r3, lr}
 8001790:	f7ff be52 	b.w	8001438 <Error_Handler>
 8001794:	bd08      	pop	{r3, pc}
 8001796:	bf00      	nop
 8001798:	20000a2c 	.word	0x20000a2c
 800179c:	40004400 	.word	0x40004400

080017a0 <MX_USART3_UART_Init>:
 80017a0:	b508      	push	{r3, lr}
 80017a2:	f44f 33e1 	mov.w	r3, #115200	; 0x1c200
 80017a6:	480a      	ldr	r0, [pc, #40]	; (80017d0 <MX_USART3_UART_Init+0x30>)
 80017a8:	4a0a      	ldr	r2, [pc, #40]	; (80017d4 <MX_USART3_UART_Init+0x34>)
 80017aa:	e9c0 2300 	strd	r2, r3, [r0]
 80017ae:	2300      	movs	r3, #0
 80017b0:	220c      	movs	r2, #12
 80017b2:	e9c0 3302 	strd	r3, r3, [r0, #8]
 80017b6:	6103      	str	r3, [r0, #16]
 80017b8:	e9c0 2305 	strd	r2, r3, [r0, #20]
 80017bc:	61c3      	str	r3, [r0, #28]
 80017be:	f001 f9e1 	bl	8002b84 <HAL_UART_Init>
 80017c2:	b118      	cbz	r0, 80017cc <MX_USART3_UART_Init+0x2c>
 80017c4:	e8bd 4008 	ldmia.w	sp!, {r3, lr}
 80017c8:	f7ff be36 	b.w	8001438 <Error_Handler>
 80017cc:	bd08      	pop	{r3, pc}
 80017ce:	bf00      	nop
 80017d0:	20000604 	.word	0x20000604
 80017d4:	40004800 	.word	0x40004800

080017d8 <HAL_UART_MspInit>:
 80017d8:	2210      	movs	r2, #16
 80017da:	b510      	push	{r4, lr}
 80017dc:	4604      	mov	r4, r0
 80017de:	b088      	sub	sp, #32
 80017e0:	eb0d 0002 	add.w	r0, sp, r2
 80017e4:	2100      	movs	r1, #0
 80017e6:	f001 fb5b 	bl	8002ea0 <memset>
 80017ea:	6823      	ldr	r3, [r4, #0]
 80017ec:	4a2f      	ldr	r2, [pc, #188]	; (80018ac <HAL_UART_MspInit+0xd4>)
 80017ee:	4293      	cmp	r3, r2
 80017f0:	d127      	bne.n	8001842 <HAL_UART_MspInit+0x6a>
 80017f2:	4b2f      	ldr	r3, [pc, #188]	; (80018b0 <HAL_UART_MspInit+0xd8>)
 80017f4:	2104      	movs	r1, #4
 80017f6:	69da      	ldr	r2, [r3, #28]
 80017f8:	482e      	ldr	r0, [pc, #184]	; (80018b4 <HAL_UART_MspInit+0xdc>)
 80017fa:	f442 3200 	orr.w	r2, r2, #131072	; 0x20000
 80017fe:	61da      	str	r2, [r3, #28]
 8001800:	69da      	ldr	r2, [r3, #28]
 8001802:	f402 3200 	and.w	r2, r2, #131072	; 0x20000
 8001806:	9200      	str	r2, [sp, #0]
 8001808:	9a00      	ldr	r2, [sp, #0]
 800180a:	699a      	ldr	r2, [r3, #24]
 800180c:	f042 0204 	orr.w	r2, r2, #4
 8001810:	619a      	str	r2, [r3, #24]
 8001812:	699b      	ldr	r3, [r3, #24]
 8001814:	f003 0304 	and.w	r3, r3, #4
 8001818:	9301      	str	r3, [sp, #4]
 800181a:	9b01      	ldr	r3, [sp, #4]
 800181c:	2302      	movs	r3, #2
 800181e:	e9cd 1304 	strd	r1, r3, [sp, #16]
 8001822:	2303      	movs	r3, #3
 8001824:	a904      	add	r1, sp, #16
 8001826:	9307      	str	r3, [sp, #28]
 8001828:	f000 faf6 	bl	8001e18 <HAL_GPIO_Init>
 800182c:	2008      	movs	r0, #8
 800182e:	2300      	movs	r3, #0
 8001830:	a904      	add	r1, sp, #16
 8001832:	e9cd 0304 	strd	r0, r3, [sp, #16]
 8001836:	481f      	ldr	r0, [pc, #124]	; (80018b4 <HAL_UART_MspInit+0xdc>)
 8001838:	9306      	str	r3, [sp, #24]
 800183a:	f000 faed 	bl	8001e18 <HAL_GPIO_Init>
 800183e:	b008      	add	sp, #32
 8001840:	bd10      	pop	{r4, pc}
 8001842:	4a1d      	ldr	r2, [pc, #116]	; (80018b8 <HAL_UART_MspInit+0xe0>)
 8001844:	4293      	cmp	r3, r2
 8001846:	d1fa      	bne.n	800183e <HAL_UART_MspInit+0x66>
 8001848:	4b19      	ldr	r3, [pc, #100]	; (80018b0 <HAL_UART_MspInit+0xd8>)
 800184a:	a904      	add	r1, sp, #16
 800184c:	69da      	ldr	r2, [r3, #28]
 800184e:	481b      	ldr	r0, [pc, #108]	; (80018bc <HAL_UART_MspInit+0xe4>)
 8001850:	f442 2280 	orr.w	r2, r2, #262144	; 0x40000
 8001854:	61da      	str	r2, [r3, #28]
 8001856:	69da      	ldr	r2, [r3, #28]
 8001858:	2400      	movs	r4, #0
 800185a:	f402 2280 	and.w	r2, r2, #262144	; 0x40000
 800185e:	9202      	str	r2, [sp, #8]
 8001860:	9a02      	ldr	r2, [sp, #8]
 8001862:	699a      	ldr	r2, [r3, #24]
 8001864:	f042 0208 	orr.w	r2, r2, #8
 8001868:	619a      	str	r2, [r3, #24]
 800186a:	699b      	ldr	r3, [r3, #24]
 800186c:	f44f 6280 	mov.w	r2, #1024	; 0x400
 8001870:	f003 0308 	and.w	r3, r3, #8
 8001874:	9303      	str	r3, [sp, #12]
 8001876:	9b03      	ldr	r3, [sp, #12]
 8001878:	2302      	movs	r3, #2
 800187a:	e9cd 2304 	strd	r2, r3, [sp, #16]
 800187e:	2303      	movs	r3, #3
 8001880:	9307      	str	r3, [sp, #28]
 8001882:	f000 fac9 	bl	8001e18 <HAL_GPIO_Init>
 8001886:	f44f 6300 	mov.w	r3, #2048	; 0x800
 800188a:	a904      	add	r1, sp, #16
 800188c:	480b      	ldr	r0, [pc, #44]	; (80018bc <HAL_UART_MspInit+0xe4>)
 800188e:	e9cd 3404 	strd	r3, r4, [sp, #16]
 8001892:	9406      	str	r4, [sp, #24]
 8001894:	f000 fac0 	bl	8001e18 <HAL_GPIO_Init>
 8001898:	4622      	mov	r2, r4
 800189a:	4621      	mov	r1, r4
 800189c:	2027      	movs	r0, #39	; 0x27
 800189e:	f000 f9b5 	bl	8001c0c <HAL_NVIC_SetPriority>
 80018a2:	2027      	movs	r0, #39	; 0x27
 80018a4:	f000 f9e6 	bl	8001c74 <HAL_NVIC_EnableIRQ>
 80018a8:	e7c9      	b.n	800183e <HAL_UART_MspInit+0x66>
 80018aa:	bf00      	nop
 80018ac:	40004400 	.word	0x40004400
 80018b0:	40021000 	.word	0x40021000
 80018b4:	40010800 	.word	0x40010800
 80018b8:	40004800 	.word	0x40004800
 80018bc:	40010c00 	.word	0x40010c00

080018c0 <MX_USB_PCD_Init>:
 80018c0:	b508      	push	{r3, lr}
 80018c2:	2308      	movs	r3, #8
 80018c4:	4808      	ldr	r0, [pc, #32]	; (80018e8 <MX_USB_PCD_Init+0x28>)
 80018c6:	4a09      	ldr	r2, [pc, #36]	; (80018ec <MX_USB_PCD_Init+0x2c>)
 80018c8:	e9c0 2300 	strd	r2, r3, [r0]
 80018cc:	2302      	movs	r3, #2
 80018ce:	6083      	str	r3, [r0, #8]
 80018d0:	2300      	movs	r3, #0
 80018d2:	e9c0 3306 	strd	r3, r3, [r0, #24]
 80018d6:	6203      	str	r3, [r0, #32]
 80018d8:	f000 fb9b 	bl	8002012 <HAL_PCD_Init>
 80018dc:	b118      	cbz	r0, 80018e6 <MX_USB_PCD_Init+0x26>
 80018de:	e8bd 4008 	ldmia.w	sp!, {r3, lr}
 80018e2:	f7ff bda9 	b.w	8001438 <Error_Handler>
 80018e6:	bd08      	pop	{r3, pc}
 80018e8:	20000b3c 	.word	0x20000b3c
 80018ec:	40005c00 	.word	0x40005c00

080018f0 <HAL_PCD_MspInit>:
 80018f0:	6802      	ldr	r2, [r0, #0]
 80018f2:	4b08      	ldr	r3, [pc, #32]	; (8001914 <HAL_PCD_MspInit+0x24>)
 80018f4:	b082      	sub	sp, #8
 80018f6:	429a      	cmp	r2, r3
 80018f8:	d10a      	bne.n	8001910 <HAL_PCD_MspInit+0x20>
 80018fa:	f503 33da 	add.w	r3, r3, #111616	; 0x1b400
 80018fe:	69da      	ldr	r2, [r3, #28]
 8001900:	f442 0200 	orr.w	r2, r2, #8388608	; 0x800000
 8001904:	61da      	str	r2, [r3, #28]
 8001906:	69db      	ldr	r3, [r3, #28]
 8001908:	f403 0300 	and.w	r3, r3, #8388608	; 0x800000
 800190c:	9301      	str	r3, [sp, #4]
 800190e:	9b01      	ldr	r3, [sp, #4]
 8001910:	b002      	add	sp, #8
 8001912:	4770      	bx	lr
 8001914:	40005c00 	.word	0x40005c00

08001918 <reset_ws2812>:
 8001918:	4a04      	ldr	r2, [pc, #16]	; (800192c <reset_ws2812+0x14>)
 800191a:	f44f 7096 	mov.w	r0, #300	; 0x12c
 800191e:	68d3      	ldr	r3, [r2, #12]
 8001920:	f023 0304 	bic.w	r3, r3, #4
 8001924:	60d3      	str	r3, [r2, #12]
 8001926:	f7ff ba05 	b.w	8000d34 <delay_us1>
 800192a:	bf00      	nop
 800192c:	40011000 	.word	0x40011000

08001930 <reset_ws2812_1>:
 8001930:	4a04      	ldr	r2, [pc, #16]	; (8001944 <reset_ws2812_1+0x14>)
 8001932:	f44f 7096 	mov.w	r0, #300	; 0x12c
 8001936:	68d3      	ldr	r3, [r2, #12]
 8001938:	f023 0302 	bic.w	r3, r3, #2
 800193c:	60d3      	str	r3, [r2, #12]
 800193e:	f7ff b9f9 	b.w	8000d34 <delay_us1>
 8001942:	bf00      	nop
 8001944:	40011000 	.word	0x40011000

08001948 <WS2812_BYTE_1>:
 8001948:	2208      	movs	r2, #8
 800194a:	4b3b      	ldr	r3, [pc, #236]	; (8001a38 <WS2812_BYTE_1+0xf0>)
 800194c:	68d9      	ldr	r1, [r3, #12]
 800194e:	f041 0102 	orr.w	r1, r1, #2
 8001952:	60d9      	str	r1, [r3, #12]
 8001954:	0601      	lsls	r1, r0, #24
 8001956:	d52e      	bpl.n	80019b6 <WS2812_BYTE_1+0x6e>
 8001958:	bf00      	nop
 800195a:	bf00      	nop
 800195c:	bf00      	nop
 800195e:	bf00      	nop
 8001960:	bf00      	nop
 8001962:	bf00      	nop
 8001964:	bf00      	nop
 8001966:	bf00      	nop
 8001968:	bf00      	nop
 800196a:	bf00      	nop
 800196c:	bf00      	nop
 800196e:	bf00      	nop
 8001970:	bf00      	nop
 8001972:	bf00      	nop
 8001974:	bf00      	nop
 8001976:	bf00      	nop
 8001978:	bf00      	nop
 800197a:	bf00      	nop
 800197c:	bf00      	nop
 800197e:	bf00      	nop
 8001980:	bf00      	nop
 8001982:	bf00      	nop
 8001984:	bf00      	nop
 8001986:	bf00      	nop
 8001988:	bf00      	nop
 800198a:	bf00      	nop
 800198c:	bf00      	nop
 800198e:	bf00      	nop
 8001990:	bf00      	nop
 8001992:	bf00      	nop
 8001994:	bf00      	nop
 8001996:	bf00      	nop
 8001998:	bf00      	nop
 800199a:	bf00      	nop
 800199c:	bf00      	nop
 800199e:	bf00      	nop
 80019a0:	bf00      	nop
 80019a2:	bf00      	nop
 80019a4:	bf00      	nop
 80019a6:	bf00      	nop
 80019a8:	bf00      	nop
 80019aa:	bf00      	nop
 80019ac:	bf00      	nop
 80019ae:	bf00      	nop
 80019b0:	bf00      	nop
 80019b2:	bf00      	nop
 80019b4:	bf00      	nop
 80019b6:	bf00      	nop
 80019b8:	bf00      	nop
 80019ba:	bf00      	nop
 80019bc:	68d9      	ldr	r1, [r3, #12]
 80019be:	f021 0102 	bic.w	r1, r1, #2
 80019c2:	60d9      	str	r1, [r3, #12]
 80019c4:	bf00      	nop
 80019c6:	bf00      	nop
 80019c8:	bf00      	nop
 80019ca:	bf00      	nop
 80019cc:	bf00      	nop
 80019ce:	bf00      	nop
 80019d0:	bf00      	nop
 80019d2:	bf00      	nop
 80019d4:	bf00      	nop
 80019d6:	bf00      	nop
 80019d8:	bf00      	nop
 80019da:	bf00      	nop
 80019dc:	bf00      	nop
 80019de:	bf00      	nop
 80019e0:	bf00      	nop
 80019e2:	bf00      	nop
 80019e4:	bf00      	nop
 80019e6:	bf00      	nop
 80019e8:	bf00      	nop
 80019ea:	bf00      	nop
 80019ec:	bf00      	nop
 80019ee:	bf00      	nop
 80019f0:	bf00      	nop
 80019f2:	bf00      	nop
 80019f4:	bf00      	nop
 80019f6:	bf00      	nop
 80019f8:	bf00      	nop
 80019fa:	bf00      	nop
 80019fc:	bf00      	nop
 80019fe:	bf00      	nop
 8001a00:	bf00      	nop
 8001a02:	bf00      	nop
 8001a04:	bf00      	nop
 8001a06:	bf00      	nop
 8001a08:	bf00      	nop
 8001a0a:	bf00      	nop
 8001a0c:	bf00      	nop
 8001a0e:	bf00      	nop
 8001a10:	bf00      	nop
 8001a12:	bf00      	nop
 8001a14:	bf00      	nop
 8001a16:	bf00      	nop
 8001a18:	bf00      	nop
 8001a1a:	bf00      	nop
 8001a1c:	bf00      	nop
 8001a1e:	bf00      	nop
 8001a20:	bf00      	nop
 8001a22:	bf00      	nop
 8001a24:	bf00      	nop
 8001a26:	bf00      	nop
 8001a28:	3a01      	subs	r2, #1
 8001a2a:	0040      	lsls	r0, r0, #1
 8001a2c:	f012 02ff 	ands.w	r2, r2, #255	; 0xff
 8001a30:	b2c0      	uxtb	r0, r0
 8001a32:	d18b      	bne.n	800194c <WS2812_BYTE_1+0x4>
 8001a34:	4770      	bx	lr
 8001a36:	bf00      	nop
 8001a38:	40011000 	.word	0x40011000

08001a3c <send_single_data1>:
 8001a3c:	b510      	push	{r4, lr}
 8001a3e:	4b09      	ldr	r3, [pc, #36]	; (8001a64 <send_single_data1+0x28>)
 8001a40:	4c09      	ldr	r4, [pc, #36]	; (8001a68 <send_single_data1+0x2c>)
 8001a42:	7818      	ldrb	r0, [r3, #0]
 8001a44:	7020      	strb	r0, [r4, #0]
 8001a46:	f7ff ff7f 	bl	8001948 <WS2812_BYTE_1>
 8001a4a:	4b08      	ldr	r3, [pc, #32]	; (8001a6c <send_single_data1+0x30>)
 8001a4c:	7818      	ldrb	r0, [r3, #0]
 8001a4e:	7020      	strb	r0, [r4, #0]
 8001a50:	f7ff ff7a 	bl	8001948 <WS2812_BYTE_1>
 8001a54:	4b06      	ldr	r3, [pc, #24]	; (8001a70 <send_single_data1+0x34>)
 8001a56:	7818      	ldrb	r0, [r3, #0]
 8001a58:	7020      	strb	r0, [r4, #0]
 8001a5a:	e8bd 4010 	ldmia.w	sp!, {r4, lr}
 8001a5e:	f7ff bf73 	b.w	8001948 <WS2812_BYTE_1>
 8001a62:	bf00      	nop
 8001a64:	20000da8 	.word	0x20000da8
 8001a68:	20000daa 	.word	0x20000daa
 8001a6c:	20000dae 	.word	0x20000dae
 8001a70:	20000db0 	.word	0x20000db0

08001a74 <send_string_data1>:
 8001a74:	b510      	push	{r4, lr}
 8001a76:	2448      	movs	r4, #72	; 0x48
 8001a78:	3c01      	subs	r4, #1
 8001a7a:	f7ff ffdf 	bl	8001a3c <send_single_data1>
 8001a7e:	f014 04ff 	ands.w	r4, r4, #255	; 0xff
 8001a82:	d1f9      	bne.n	8001a78 <send_string_data1+0x4>
 8001a84:	e8bd 4010 	ldmia.w	sp!, {r4, lr}
 8001a88:	f7ff bf52 	b.w	8001930 <reset_ws2812_1>

08001a8c <send_image>:
 8001a8c:	b538      	push	{r3, r4, r5, lr}
 8001a8e:	1cc4      	adds	r4, r0, #3
 8001a90:	f100 05db 	add.w	r5, r0, #219	; 0xdb
 8001a94:	f814 0c03 	ldrb.w	r0, [r4, #-3]
 8001a98:	f7ff ff56 	bl	8001948 <WS2812_BYTE_1>
 8001a9c:	f814 0c02 	ldrb.w	r0, [r4, #-2]
 8001aa0:	f7ff ff52 	bl	8001948 <WS2812_BYTE_1>
 8001aa4:	3403      	adds	r4, #3
 8001aa6:	f814 0c04 	ldrb.w	r0, [r4, #-4]
 8001aaa:	f7ff ff4d 	bl	8001948 <WS2812_BYTE_1>
 8001aae:	42ac      	cmp	r4, r5
 8001ab0:	d1f0      	bne.n	8001a94 <send_image+0x8>
 8001ab2:	e8bd 4038 	ldmia.w	sp!, {r3, r4, r5, lr}
 8001ab6:	f7ff bf3b 	b.w	8001930 <reset_ws2812_1>
	...

08001abc <RGB_close1>:
 8001abc:	b508      	push	{r3, lr}
 8001abe:	2300      	movs	r3, #0
 8001ac0:	4a06      	ldr	r2, [pc, #24]	; (8001adc <RGB_close1+0x20>)
 8001ac2:	7013      	strb	r3, [r2, #0]
 8001ac4:	4a06      	ldr	r2, [pc, #24]	; (8001ae0 <RGB_close1+0x24>)
 8001ac6:	7013      	strb	r3, [r2, #0]
 8001ac8:	4a06      	ldr	r2, [pc, #24]	; (8001ae4 <RGB_close1+0x28>)
 8001aca:	7013      	strb	r3, [r2, #0]
 8001acc:	f7ff ffd2 	bl	8001a74 <send_string_data1>
 8001ad0:	e8bd 4008 	ldmia.w	sp!, {r3, lr}
 8001ad4:	2064      	movs	r0, #100	; 0x64
 8001ad6:	f000 b875 	b.w	8001bc4 <HAL_Delay>
 8001ada:	bf00      	nop
 8001adc:	20000dae 	.word	0x20000dae
 8001ae0:	20000da8 	.word	0x20000da8
 8001ae4:	20000db0 	.word	0x20000db0

08001ae8 <Reset_Handler>:
 8001ae8:	2100      	movs	r1, #0
 8001aea:	e003      	b.n	8001af4 <LoopCopyDataInit>

08001aec <CopyDataInit>:
 8001aec:	4b0b      	ldr	r3, [pc, #44]	; (8001b1c <LoopFillZerobss+0x14>)
 8001aee:	585b      	ldr	r3, [r3, r1]
 8001af0:	5043      	str	r3, [r0, r1]
 8001af2:	3104      	adds	r1, #4

08001af4 <LoopCopyDataInit>:
 8001af4:	480a      	ldr	r0, [pc, #40]	; (8001b20 <LoopFillZerobss+0x18>)
 8001af6:	4b0b      	ldr	r3, [pc, #44]	; (8001b24 <LoopFillZerobss+0x1c>)
 8001af8:	1842      	adds	r2, r0, r1
 8001afa:	429a      	cmp	r2, r3
 8001afc:	d3f6      	bcc.n	8001aec <CopyDataInit>
 8001afe:	4a0a      	ldr	r2, [pc, #40]	; (8001b28 <LoopFillZerobss+0x20>)
 8001b00:	e002      	b.n	8001b08 <LoopFillZerobss>

08001b02 <FillZerobss>:
 8001b02:	2300      	movs	r3, #0
 8001b04:	f842 3b04 	str.w	r3, [r2], #4

08001b08 <LoopFillZerobss>:
 8001b08:	4b08      	ldr	r3, [pc, #32]	; (8001b2c <LoopFillZerobss+0x24>)
 8001b0a:	429a      	cmp	r2, r3
 8001b0c:	d3f9      	bcc.n	8001b02 <FillZerobss>
 8001b0e:	f7ff fcd9 	bl	80014c4 <SystemInit>
 8001b12:	f001 f9a1 	bl	8002e58 <__libc_init_array>
 8001b16:	f7ff fbf7 	bl	8001308 <main>
 8001b1a:	4770      	bx	lr
 8001b1c:	0800cff0 	.word	0x0800cff0
 8001b20:	20000000 	.word	0x20000000
 8001b24:	20000020 	.word	0x20000020
 8001b28:	20000020 	.word	0x20000020
 8001b2c:	20000db8 	.word	0x20000db8

08001b30 <ADC1_2_IRQHandler>:
 8001b30:	e7fe      	b.n	8001b30 <ADC1_2_IRQHandler>
	...

08001b34 <HAL_InitTick>:
 8001b34:	b538      	push	{r3, r4, r5, lr}
 8001b36:	4b0e      	ldr	r3, [pc, #56]	; (8001b70 <HAL_InitTick+0x3c>)
 8001b38:	4605      	mov	r5, r0
 8001b3a:	7818      	ldrb	r0, [r3, #0]
 8001b3c:	f44f 737a 	mov.w	r3, #1000	; 0x3e8
 8001b40:	fbb3 f3f0 	udiv	r3, r3, r0
 8001b44:	4a0b      	ldr	r2, [pc, #44]	; (8001b74 <HAL_InitTick+0x40>)
 8001b46:	6810      	ldr	r0, [r2, #0]
 8001b48:	fbb0 f0f3 	udiv	r0, r0, r3
 8001b4c:	f000 f8a0 	bl	8001c90 <HAL_SYSTICK_Config>
 8001b50:	4604      	mov	r4, r0
 8001b52:	b958      	cbnz	r0, 8001b6c <HAL_InitTick+0x38>
 8001b54:	2d0f      	cmp	r5, #15
 8001b56:	d809      	bhi.n	8001b6c <HAL_InitTick+0x38>
 8001b58:	4602      	mov	r2, r0
 8001b5a:	4629      	mov	r1, r5
 8001b5c:	f04f 30ff 	mov.w	r0, #4294967295
 8001b60:	f000 f854 	bl	8001c0c <HAL_NVIC_SetPriority>
 8001b64:	4620      	mov	r0, r4
 8001b66:	4b04      	ldr	r3, [pc, #16]	; (8001b78 <HAL_InitTick+0x44>)
 8001b68:	601d      	str	r5, [r3, #0]
 8001b6a:	bd38      	pop	{r3, r4, r5, pc}
 8001b6c:	2001      	movs	r0, #1
 8001b6e:	e7fc      	b.n	8001b6a <HAL_InitTick+0x36>
 8001b70:	20000018 	.word	0x20000018
 8001b74:	20000014 	.word	0x20000014
 8001b78:	2000001c 	.word	0x2000001c

08001b7c <HAL_Init>:
 8001b7c:	4a07      	ldr	r2, [pc, #28]	; (8001b9c <HAL_Init+0x20>)
 8001b7e:	b508      	push	{r3, lr}
 8001b80:	6813      	ldr	r3, [r2, #0]
 8001b82:	2003      	movs	r0, #3
 8001b84:	f043 0310 	orr.w	r3, r3, #16
 8001b88:	6013      	str	r3, [r2, #0]
 8001b8a:	f000 f82d 	bl	8001be8 <HAL_NVIC_SetPriorityGrouping>
 8001b8e:	2000      	movs	r0, #0
 8001b90:	f7ff ffd0 	bl	8001b34 <HAL_InitTick>
 8001b94:	f7ff fc52 	bl	800143c <HAL_MspInit>
 8001b98:	2000      	movs	r0, #0
 8001b9a:	bd08      	pop	{r3, pc}
 8001b9c:	40022000 	.word	0x40022000

08001ba0 <HAL_IncTick>:
 8001ba0:	4a03      	ldr	r2, [pc, #12]	; (8001bb0 <HAL_IncTick+0x10>)
 8001ba2:	4b04      	ldr	r3, [pc, #16]	; (8001bb4 <HAL_IncTick+0x14>)
 8001ba4:	6811      	ldr	r1, [r2, #0]
 8001ba6:	781b      	ldrb	r3, [r3, #0]
 8001ba8:	440b      	add	r3, r1
 8001baa:	6013      	str	r3, [r2, #0]
 8001bac:	4770      	bx	lr
 8001bae:	bf00      	nop
 8001bb0:	20000db4 	.word	0x20000db4
 8001bb4:	20000018 	.word	0x20000018

08001bb8 <HAL_GetTick>:
 8001bb8:	4b01      	ldr	r3, [pc, #4]	; (8001bc0 <HAL_GetTick+0x8>)
 8001bba:	6818      	ldr	r0, [r3, #0]
 8001bbc:	4770      	bx	lr
 8001bbe:	bf00      	nop
 8001bc0:	20000db4 	.word	0x20000db4

08001bc4 <HAL_Delay>:
 8001bc4:	b538      	push	{r3, r4, r5, lr}
 8001bc6:	4604      	mov	r4, r0
 8001bc8:	f7ff fff6 	bl	8001bb8 <HAL_GetTick>
 8001bcc:	4605      	mov	r5, r0
 8001bce:	1c63      	adds	r3, r4, #1
 8001bd0:	bf1e      	ittt	ne
 8001bd2:	4b04      	ldrne	r3, [pc, #16]	; (8001be4 <HAL_Delay+0x20>)
 8001bd4:	781b      	ldrbne	r3, [r3, #0]
 8001bd6:	18e4      	addne	r4, r4, r3
 8001bd8:	f7ff ffee 	bl	8001bb8 <HAL_GetTick>
 8001bdc:	1b40      	subs	r0, r0, r5
 8001bde:	42a0      	cmp	r0, r4
 8001be0:	d3fa      	bcc.n	8001bd8 <HAL_Delay+0x14>
 8001be2:	bd38      	pop	{r3, r4, r5, pc}
 8001be4:	20000018 	.word	0x20000018

08001be8 <HAL_NVIC_SetPriorityGrouping>:
 8001be8:	4a07      	ldr	r2, [pc, #28]	; (8001c08 <HAL_NVIC_SetPriorityGrouping+0x20>)
 8001bea:	0200      	lsls	r0, r0, #8
 8001bec:	68d3      	ldr	r3, [r2, #12]
 8001bee:	f400 60e0 	and.w	r0, r0, #1792	; 0x700
 8001bf2:	f423 63e0 	bic.w	r3, r3, #1792	; 0x700
 8001bf6:	041b      	lsls	r3, r3, #16
 8001bf8:	0c1b      	lsrs	r3, r3, #16
 8001bfa:	f043 63bf 	orr.w	r3, r3, #100139008	; 0x5f80000
 8001bfe:	f443 3300 	orr.w	r3, r3, #131072	; 0x20000
 8001c02:	4303      	orrs	r3, r0
 8001c04:	60d3      	str	r3, [r2, #12]
 8001c06:	4770      	bx	lr
 8001c08:	e000ed00 	.word	0xe000ed00

08001c0c <HAL_NVIC_SetPriority>:
 8001c0c:	4b17      	ldr	r3, [pc, #92]	; (8001c6c <HAL_NVIC_SetPriority+0x60>)
 8001c0e:	b570      	push	{r4, r5, r6, lr}
 8001c10:	68dc      	ldr	r4, [r3, #12]
 8001c12:	f04f 36ff 	mov.w	r6, #4294967295
 8001c16:	f3c4 2402 	ubfx	r4, r4, #8, #3
 8001c1a:	f1c4 0507 	rsb	r5, r4, #7
 8001c1e:	2d04      	cmp	r5, #4
 8001c20:	f104 0304 	add.w	r3, r4, #4
 8001c24:	bf28      	it	cs
 8001c26:	2504      	movcs	r5, #4
 8001c28:	2b06      	cmp	r3, #6
 8001c2a:	bf98      	it	ls
 8001c2c:	2400      	movls	r4, #0
 8001c2e:	fa06 f305 	lsl.w	r3, r6, r5
 8001c32:	bf88      	it	hi
 8001c34:	3c03      	subhi	r4, #3
 8001c36:	ea21 0303 	bic.w	r3, r1, r3
 8001c3a:	40a3      	lsls	r3, r4
 8001c3c:	fa06 f404 	lsl.w	r4, r6, r4
 8001c40:	ea22 0404 	bic.w	r4, r2, r4
 8001c44:	2800      	cmp	r0, #0
 8001c46:	ea43 0304 	orr.w	r3, r3, r4
 8001c4a:	bfa8      	it	ge
 8001c4c:	f100 4060 	addge.w	r0, r0, #3758096384	; 0xe0000000
 8001c50:	ea4f 1303 	mov.w	r3, r3, lsl #4
 8001c54:	bfb8      	it	lt
 8001c56:	4a06      	ldrlt	r2, [pc, #24]	; (8001c70 <HAL_NVIC_SetPriority+0x64>)
 8001c58:	b2db      	uxtb	r3, r3
 8001c5a:	bfab      	itete	ge
 8001c5c:	f500 4061 	addge.w	r0, r0, #57600	; 0xe100
 8001c60:	f000 000f 	andlt.w	r0, r0, #15
 8001c64:	f880 3300 	strbge.w	r3, [r0, #768]	; 0x300
 8001c68:	5413      	strblt	r3, [r2, r0]
 8001c6a:	bd70      	pop	{r4, r5, r6, pc}
 8001c6c:	e000ed00 	.word	0xe000ed00
 8001c70:	e000ed14 	.word	0xe000ed14

08001c74 <HAL_NVIC_EnableIRQ>:
 8001c74:	2800      	cmp	r0, #0
 8001c76:	db08      	blt.n	8001c8a <HAL_NVIC_EnableIRQ+0x16>
 8001c78:	2301      	movs	r3, #1
 8001c7a:	0942      	lsrs	r2, r0, #5
 8001c7c:	f000 001f 	and.w	r0, r0, #31
 8001c80:	fa03 f000 	lsl.w	r0, r3, r0
 8001c84:	4b01      	ldr	r3, [pc, #4]	; (8001c8c <HAL_NVIC_EnableIRQ+0x18>)
 8001c86:	f843 0022 	str.w	r0, [r3, r2, lsl #2]
 8001c8a:	4770      	bx	lr
 8001c8c:	e000e100 	.word	0xe000e100

08001c90 <HAL_SYSTICK_Config>:
 8001c90:	3801      	subs	r0, #1
 8001c92:	f1b0 7f80 	cmp.w	r0, #16777216	; 0x1000000
 8001c96:	d20a      	bcs.n	8001cae <HAL_SYSTICK_Config+0x1e>
 8001c98:	21f0      	movs	r1, #240	; 0xf0
 8001c9a:	4b06      	ldr	r3, [pc, #24]	; (8001cb4 <HAL_SYSTICK_Config+0x24>)
 8001c9c:	4a06      	ldr	r2, [pc, #24]	; (8001cb8 <HAL_SYSTICK_Config+0x28>)
 8001c9e:	6058      	str	r0, [r3, #4]
 8001ca0:	f882 1023 	strb.w	r1, [r2, #35]	; 0x23
 8001ca4:	2000      	movs	r0, #0
 8001ca6:	2207      	movs	r2, #7
 8001ca8:	6098      	str	r0, [r3, #8]
 8001caa:	601a      	str	r2, [r3, #0]
 8001cac:	4770      	bx	lr
 8001cae:	2001      	movs	r0, #1
 8001cb0:	4770      	bx	lr
 8001cb2:	bf00      	nop
 8001cb4:	e000e010 	.word	0xe000e010
 8001cb8:	e000ed00 	.word	0xe000ed00

08001cbc <HAL_SYSTICK_CLKSourceConfig>:
 8001cbc:	4b04      	ldr	r3, [pc, #16]	; (8001cd0 <HAL_SYSTICK_CLKSourceConfig+0x14>)
 8001cbe:	2804      	cmp	r0, #4
 8001cc0:	681a      	ldr	r2, [r3, #0]
 8001cc2:	bf0c      	ite	eq
 8001cc4:	f042 0204 	orreq.w	r2, r2, #4
 8001cc8:	f022 0204 	bicne.w	r2, r2, #4
 8001ccc:	601a      	str	r2, [r3, #0]
 8001cce:	4770      	bx	lr
 8001cd0:	e000e010 	.word	0xe000e010

08001cd4 <HAL_DMA_Abort_IT>:
 8001cd4:	f890 3021 	ldrb.w	r3, [r0, #33]	; 0x21
 8001cd8:	b510      	push	{r4, lr}
 8001cda:	2b02      	cmp	r3, #2
 8001cdc:	d003      	beq.n	8001ce6 <HAL_DMA_Abort_IT+0x12>
 8001cde:	2304      	movs	r3, #4
 8001ce0:	6383      	str	r3, [r0, #56]	; 0x38
 8001ce2:	2001      	movs	r0, #1
 8001ce4:	bd10      	pop	{r4, pc}
 8001ce6:	6803      	ldr	r3, [r0, #0]
 8001ce8:	4945      	ldr	r1, [pc, #276]	; (8001e00 <HAL_DMA_Abort_IT+0x12c>)
 8001cea:	681a      	ldr	r2, [r3, #0]
 8001cec:	f022 020e 	bic.w	r2, r2, #14
 8001cf0:	601a      	str	r2, [r3, #0]
 8001cf2:	681a      	ldr	r2, [r3, #0]
 8001cf4:	f022 0201 	bic.w	r2, r2, #1
 8001cf8:	601a      	str	r2, [r3, #0]
 8001cfa:	4a42      	ldr	r2, [pc, #264]	; (8001e04 <HAL_DMA_Abort_IT+0x130>)
 8001cfc:	4293      	cmp	r3, r2
 8001cfe:	d944      	bls.n	8001d8a <HAL_DMA_Abort_IT+0xb6>
 8001d00:	428b      	cmp	r3, r1
 8001d02:	d03b      	beq.n	8001d7c <HAL_DMA_Abort_IT+0xa8>
 8001d04:	3114      	adds	r1, #20
 8001d06:	428b      	cmp	r3, r1
 8001d08:	d03a      	beq.n	8001d80 <HAL_DMA_Abort_IT+0xac>
 8001d0a:	3114      	adds	r1, #20
 8001d0c:	428b      	cmp	r3, r1
 8001d0e:	d039      	beq.n	8001d84 <HAL_DMA_Abort_IT+0xb0>
 8001d10:	3114      	adds	r1, #20
 8001d12:	428b      	cmp	r3, r1
 8001d14:	d026      	beq.n	8001d64 <HAL_DMA_Abort_IT+0x90>
 8001d16:	3114      	adds	r1, #20
 8001d18:	428b      	cmp	r3, r1
 8001d1a:	d026      	beq.n	8001d6a <HAL_DMA_Abort_IT+0x96>
 8001d1c:	3114      	adds	r1, #20
 8001d1e:	428b      	cmp	r3, r1
 8001d20:	d026      	beq.n	8001d70 <HAL_DMA_Abort_IT+0x9c>
 8001d22:	4293      	cmp	r3, r2
 8001d24:	d027      	beq.n	8001d76 <HAL_DMA_Abort_IT+0xa2>
 8001d26:	f502 7262 	add.w	r2, r2, #904	; 0x388
 8001d2a:	4293      	cmp	r3, r2
 8001d2c:	d026      	beq.n	8001d7c <HAL_DMA_Abort_IT+0xa8>
 8001d2e:	3214      	adds	r2, #20
 8001d30:	4293      	cmp	r3, r2
 8001d32:	d025      	beq.n	8001d80 <HAL_DMA_Abort_IT+0xac>
 8001d34:	3214      	adds	r2, #20
 8001d36:	4293      	cmp	r3, r2
 8001d38:	d024      	beq.n	8001d84 <HAL_DMA_Abort_IT+0xb0>
 8001d3a:	3214      	adds	r2, #20
 8001d3c:	4293      	cmp	r3, r2
 8001d3e:	bf14      	ite	ne
 8001d40:	f44f 3380 	movne.w	r3, #65536	; 0x10000
 8001d44:	f44f 5380 	moveq.w	r3, #4096	; 0x1000
 8001d48:	4a2f      	ldr	r2, [pc, #188]	; (8001e08 <HAL_DMA_Abort_IT+0x134>)
 8001d4a:	6053      	str	r3, [r2, #4]
 8001d4c:	2301      	movs	r3, #1
 8001d4e:	2400      	movs	r4, #0
 8001d50:	f880 3021 	strb.w	r3, [r0, #33]	; 0x21
 8001d54:	6b43      	ldr	r3, [r0, #52]	; 0x34
 8001d56:	f880 4020 	strb.w	r4, [r0, #32]
 8001d5a:	2b00      	cmp	r3, #0
 8001d5c:	d04d      	beq.n	8001dfa <HAL_DMA_Abort_IT+0x126>
 8001d5e:	4798      	blx	r3
 8001d60:	4620      	mov	r0, r4
 8001d62:	e7bf      	b.n	8001ce4 <HAL_DMA_Abort_IT+0x10>
 8001d64:	f44f 5380 	mov.w	r3, #4096	; 0x1000
 8001d68:	e7ee      	b.n	8001d48 <HAL_DMA_Abort_IT+0x74>
 8001d6a:	f44f 3380 	mov.w	r3, #65536	; 0x10000
 8001d6e:	e7eb      	b.n	8001d48 <HAL_DMA_Abort_IT+0x74>
 8001d70:	f44f 1380 	mov.w	r3, #1048576	; 0x100000
 8001d74:	e7e8      	b.n	8001d48 <HAL_DMA_Abort_IT+0x74>
 8001d76:	f04f 7380 	mov.w	r3, #16777216	; 0x1000000
 8001d7a:	e7e5      	b.n	8001d48 <HAL_DMA_Abort_IT+0x74>
 8001d7c:	2301      	movs	r3, #1
 8001d7e:	e7e3      	b.n	8001d48 <HAL_DMA_Abort_IT+0x74>
 8001d80:	2310      	movs	r3, #16
 8001d82:	e7e1      	b.n	8001d48 <HAL_DMA_Abort_IT+0x74>
 8001d84:	f44f 7380 	mov.w	r3, #256	; 0x100
 8001d88:	e7de      	b.n	8001d48 <HAL_DMA_Abort_IT+0x74>
 8001d8a:	428b      	cmp	r3, r1
 8001d8c:	d02e      	beq.n	8001dec <HAL_DMA_Abort_IT+0x118>
 8001d8e:	491f      	ldr	r1, [pc, #124]	; (8001e0c <HAL_DMA_Abort_IT+0x138>)
 8001d90:	428b      	cmp	r3, r1
 8001d92:	d02d      	beq.n	8001df0 <HAL_DMA_Abort_IT+0x11c>
 8001d94:	3114      	adds	r1, #20
 8001d96:	428b      	cmp	r3, r1
 8001d98:	d02c      	beq.n	8001df4 <HAL_DMA_Abort_IT+0x120>
 8001d9a:	3114      	adds	r1, #20
 8001d9c:	428b      	cmp	r3, r1
 8001d9e:	d019      	beq.n	8001dd4 <HAL_DMA_Abort_IT+0x100>
 8001da0:	3114      	adds	r1, #20
 8001da2:	428b      	cmp	r3, r1
 8001da4:	d019      	beq.n	8001dda <HAL_DMA_Abort_IT+0x106>
 8001da6:	3114      	adds	r1, #20
 8001da8:	428b      	cmp	r3, r1
 8001daa:	d019      	beq.n	8001de0 <HAL_DMA_Abort_IT+0x10c>
 8001dac:	4293      	cmp	r3, r2
 8001dae:	d01a      	beq.n	8001de6 <HAL_DMA_Abort_IT+0x112>
 8001db0:	4a17      	ldr	r2, [pc, #92]	; (8001e10 <HAL_DMA_Abort_IT+0x13c>)
 8001db2:	4293      	cmp	r3, r2
 8001db4:	d01a      	beq.n	8001dec <HAL_DMA_Abort_IT+0x118>
 8001db6:	3214      	adds	r2, #20
 8001db8:	4293      	cmp	r3, r2
 8001dba:	d019      	beq.n	8001df0 <HAL_DMA_Abort_IT+0x11c>
 8001dbc:	3214      	adds	r2, #20
 8001dbe:	4293      	cmp	r3, r2
 8001dc0:	d018      	beq.n	8001df4 <HAL_DMA_Abort_IT+0x120>
 8001dc2:	3214      	adds	r2, #20
 8001dc4:	4293      	cmp	r3, r2
 8001dc6:	bf14      	ite	ne
 8001dc8:	f44f 3380 	movne.w	r3, #65536	; 0x10000
 8001dcc:	f44f 5380 	moveq.w	r3, #4096	; 0x1000
 8001dd0:	4a10      	ldr	r2, [pc, #64]	; (8001e14 <HAL_DMA_Abort_IT+0x140>)
 8001dd2:	e7ba      	b.n	8001d4a <HAL_DMA_Abort_IT+0x76>
 8001dd4:	f44f 5380 	mov.w	r3, #4096	; 0x1000
 8001dd8:	e7fa      	b.n	8001dd0 <HAL_DMA_Abort_IT+0xfc>
 8001dda:	f44f 3380 	mov.w	r3, #65536	; 0x10000
 8001dde:	e7f7      	b.n	8001dd0 <HAL_DMA_Abort_IT+0xfc>
 8001de0:	f44f 1380 	mov.w	r3, #1048576	; 0x100000
 8001de4:	e7f4      	b.n	8001dd0 <HAL_DMA_Abort_IT+0xfc>
 8001de6:	f04f 7380 	mov.w	r3, #16777216	; 0x1000000
 8001dea:	e7f1      	b.n	8001dd0 <HAL_DMA_Abort_IT+0xfc>
 8001dec:	2301      	movs	r3, #1
 8001dee:	e7ef      	b.n	8001dd0 <HAL_DMA_Abort_IT+0xfc>
 8001df0:	2310      	movs	r3, #16
 8001df2:	e7ed      	b.n	8001dd0 <HAL_DMA_Abort_IT+0xfc>
 8001df4:	f44f 7380 	mov.w	r3, #256	; 0x100
 8001df8:	e7ea      	b.n	8001dd0 <HAL_DMA_Abort_IT+0xfc>
 8001dfa:	4618      	mov	r0, r3
 8001dfc:	e772      	b.n	8001ce4 <HAL_DMA_Abort_IT+0x10>
 8001dfe:	bf00      	nop
 8001e00:	40020008 	.word	0x40020008
 8001e04:	40020080 	.word	0x40020080
 8001e08:	40020400 	.word	0x40020400
 8001e0c:	4002001c 	.word	0x4002001c
 8001e10:	40020408 	.word	0x40020408
 8001e14:	40020000 	.word	0x40020000

08001e18 <HAL_GPIO_Init>:
 8001e18:	e92d 4ff7 	stmdb	sp!, {r0, r1, r2, r4, r5, r6, r7, r8, r9, sl, fp, lr}
 8001e1c:	2400      	movs	r4, #0
 8001e1e:	4626      	mov	r6, r4
 8001e20:	4f6c      	ldr	r7, [pc, #432]	; (8001fd4 <HAL_GPIO_Init+0x1bc>)
 8001e22:	4b6d      	ldr	r3, [pc, #436]	; (8001fd8 <HAL_GPIO_Init+0x1c0>)
 8001e24:	f8df c1b8 	ldr.w	ip, [pc, #440]	; 8001fe0 <HAL_GPIO_Init+0x1c8>
 8001e28:	f8df e1b8 	ldr.w	lr, [pc, #440]	; 8001fe4 <HAL_GPIO_Init+0x1cc>
 8001e2c:	680a      	ldr	r2, [r1, #0]
 8001e2e:	fa32 f506 	lsrs.w	r5, r2, r6
 8001e32:	d102      	bne.n	8001e3a <HAL_GPIO_Init+0x22>
 8001e34:	b003      	add	sp, #12
 8001e36:	e8bd 8ff0 	ldmia.w	sp!, {r4, r5, r6, r7, r8, r9, sl, fp, pc}
 8001e3a:	f04f 0801 	mov.w	r8, #1
 8001e3e:	fa08 f806 	lsl.w	r8, r8, r6
 8001e42:	ea02 0208 	and.w	r2, r2, r8
 8001e46:	4590      	cmp	r8, r2
 8001e48:	f040 8084 	bne.w	8001f54 <HAL_GPIO_Init+0x13c>
 8001e4c:	684d      	ldr	r5, [r1, #4]
 8001e4e:	2d12      	cmp	r5, #18
 8001e50:	f000 80b1 	beq.w	8001fb6 <HAL_GPIO_Init+0x19e>
 8001e54:	f200 8087 	bhi.w	8001f66 <HAL_GPIO_Init+0x14e>
 8001e58:	2d02      	cmp	r5, #2
 8001e5a:	f000 80a9 	beq.w	8001fb0 <HAL_GPIO_Init+0x198>
 8001e5e:	d87b      	bhi.n	8001f58 <HAL_GPIO_Init+0x140>
 8001e60:	2d00      	cmp	r5, #0
 8001e62:	f000 808c 	beq.w	8001f7e <HAL_GPIO_Init+0x166>
 8001e66:	2d01      	cmp	r5, #1
 8001e68:	f000 80a0 	beq.w	8001fac <HAL_GPIO_Init+0x194>
 8001e6c:	f04f 090f 	mov.w	r9, #15
 8001e70:	2aff      	cmp	r2, #255	; 0xff
 8001e72:	bf93      	iteet	ls
 8001e74:	4682      	movls	sl, r0
 8001e76:	f106 4580 	addhi.w	r5, r6, #1073741824	; 0x40000000
 8001e7a:	3d08      	subhi	r5, #8
 8001e7c:	f8d0 b000 	ldrls.w	fp, [r0]
 8001e80:	bf92      	itee	ls
 8001e82:	00b5      	lslls	r5, r6, #2
 8001e84:	f8d0 b004 	ldrhi.w	fp, [r0, #4]
 8001e88:	00ad      	lslhi	r5, r5, #2
 8001e8a:	fa09 f805 	lsl.w	r8, r9, r5
 8001e8e:	ea2b 0808 	bic.w	r8, fp, r8
 8001e92:	fa04 f505 	lsl.w	r5, r4, r5
 8001e96:	bf88      	it	hi
 8001e98:	f100 0a04 	addhi.w	sl, r0, #4
 8001e9c:	ea48 0505 	orr.w	r5, r8, r5
 8001ea0:	f8ca 5000 	str.w	r5, [sl]
 8001ea4:	f8d1 a004 	ldr.w	sl, [r1, #4]
 8001ea8:	f01a 5f80 	tst.w	sl, #268435456	; 0x10000000
 8001eac:	d052      	beq.n	8001f54 <HAL_GPIO_Init+0x13c>
 8001eae:	69bd      	ldr	r5, [r7, #24]
 8001eb0:	f026 0803 	bic.w	r8, r6, #3
 8001eb4:	f045 0501 	orr.w	r5, r5, #1
 8001eb8:	61bd      	str	r5, [r7, #24]
 8001eba:	69bd      	ldr	r5, [r7, #24]
 8001ebc:	f108 4880 	add.w	r8, r8, #1073741824	; 0x40000000
 8001ec0:	f005 0501 	and.w	r5, r5, #1
 8001ec4:	9501      	str	r5, [sp, #4]
 8001ec6:	f508 3880 	add.w	r8, r8, #65536	; 0x10000
 8001eca:	f006 0b03 	and.w	fp, r6, #3
 8001ece:	9d01      	ldr	r5, [sp, #4]
 8001ed0:	ea4f 0b8b 	mov.w	fp, fp, lsl #2
 8001ed4:	f8d8 5008 	ldr.w	r5, [r8, #8]
 8001ed8:	fa09 f90b 	lsl.w	r9, r9, fp
 8001edc:	ea25 0909 	bic.w	r9, r5, r9
 8001ee0:	4d3e      	ldr	r5, [pc, #248]	; (8001fdc <HAL_GPIO_Init+0x1c4>)
 8001ee2:	42a8      	cmp	r0, r5
 8001ee4:	d06c      	beq.n	8001fc0 <HAL_GPIO_Init+0x1a8>
 8001ee6:	f505 6580 	add.w	r5, r5, #1024	; 0x400
 8001eea:	42a8      	cmp	r0, r5
 8001eec:	d06a      	beq.n	8001fc4 <HAL_GPIO_Init+0x1ac>
 8001eee:	f505 6580 	add.w	r5, r5, #1024	; 0x400
 8001ef2:	42a8      	cmp	r0, r5
 8001ef4:	d068      	beq.n	8001fc8 <HAL_GPIO_Init+0x1b0>
 8001ef6:	f505 6580 	add.w	r5, r5, #1024	; 0x400
 8001efa:	42a8      	cmp	r0, r5
 8001efc:	d066      	beq.n	8001fcc <HAL_GPIO_Init+0x1b4>
 8001efe:	f505 6580 	add.w	r5, r5, #1024	; 0x400
 8001f02:	42a8      	cmp	r0, r5
 8001f04:	d064      	beq.n	8001fd0 <HAL_GPIO_Init+0x1b8>
 8001f06:	4560      	cmp	r0, ip
 8001f08:	bf0c      	ite	eq
 8001f0a:	2505      	moveq	r5, #5
 8001f0c:	2506      	movne	r5, #6
 8001f0e:	fa05 f50b 	lsl.w	r5, r5, fp
 8001f12:	ea45 0509 	orr.w	r5, r5, r9
 8001f16:	f8c8 5008 	str.w	r5, [r8, #8]
 8001f1a:	681d      	ldr	r5, [r3, #0]
 8001f1c:	f41a 3f80 	tst.w	sl, #65536	; 0x10000
 8001f20:	bf14      	ite	ne
 8001f22:	4315      	orrne	r5, r2
 8001f24:	4395      	biceq	r5, r2
 8001f26:	601d      	str	r5, [r3, #0]
 8001f28:	685d      	ldr	r5, [r3, #4]
 8001f2a:	f41a 3f00 	tst.w	sl, #131072	; 0x20000
 8001f2e:	bf14      	ite	ne
 8001f30:	4315      	orrne	r5, r2
 8001f32:	4395      	biceq	r5, r2
 8001f34:	605d      	str	r5, [r3, #4]
 8001f36:	689d      	ldr	r5, [r3, #8]
 8001f38:	f41a 1f80 	tst.w	sl, #1048576	; 0x100000
 8001f3c:	bf14      	ite	ne
 8001f3e:	4315      	orrne	r5, r2
 8001f40:	4395      	biceq	r5, r2
 8001f42:	609d      	str	r5, [r3, #8]
 8001f44:	68dd      	ldr	r5, [r3, #12]
 8001f46:	f41a 1f00 	tst.w	sl, #2097152	; 0x200000
 8001f4a:	bf14      	ite	ne
 8001f4c:	432a      	orrne	r2, r5
 8001f4e:	ea25 0202 	biceq.w	r2, r5, r2
 8001f52:	60da      	str	r2, [r3, #12]
 8001f54:	3601      	adds	r6, #1
 8001f56:	e769      	b.n	8001e2c <HAL_GPIO_Init+0x14>
 8001f58:	2d03      	cmp	r5, #3
 8001f5a:	d025      	beq.n	8001fa8 <HAL_GPIO_Init+0x190>
 8001f5c:	2d11      	cmp	r5, #17
 8001f5e:	d185      	bne.n	8001e6c <HAL_GPIO_Init+0x54>
 8001f60:	68cc      	ldr	r4, [r1, #12]
 8001f62:	3404      	adds	r4, #4
 8001f64:	e782      	b.n	8001e6c <HAL_GPIO_Init+0x54>
 8001f66:	4575      	cmp	r5, lr
 8001f68:	d009      	beq.n	8001f7e <HAL_GPIO_Init+0x166>
 8001f6a:	d812      	bhi.n	8001f92 <HAL_GPIO_Init+0x17a>
 8001f6c:	f8df 9078 	ldr.w	r9, [pc, #120]	; 8001fe8 <HAL_GPIO_Init+0x1d0>
 8001f70:	454d      	cmp	r5, r9
 8001f72:	d004      	beq.n	8001f7e <HAL_GPIO_Init+0x166>
 8001f74:	f509 3980 	add.w	r9, r9, #65536	; 0x10000
 8001f78:	454d      	cmp	r5, r9
 8001f7a:	f47f af77 	bne.w	8001e6c <HAL_GPIO_Init+0x54>
 8001f7e:	688c      	ldr	r4, [r1, #8]
 8001f80:	b1e4      	cbz	r4, 8001fbc <HAL_GPIO_Init+0x1a4>
 8001f82:	2c01      	cmp	r4, #1
 8001f84:	bf0c      	ite	eq
 8001f86:	f8c0 8010 	streq.w	r8, [r0, #16]
 8001f8a:	f8c0 8014 	strne.w	r8, [r0, #20]
 8001f8e:	2408      	movs	r4, #8
 8001f90:	e76c      	b.n	8001e6c <HAL_GPIO_Init+0x54>
 8001f92:	f8df 9058 	ldr.w	r9, [pc, #88]	; 8001fec <HAL_GPIO_Init+0x1d4>
 8001f96:	454d      	cmp	r5, r9
 8001f98:	d0f1      	beq.n	8001f7e <HAL_GPIO_Init+0x166>
 8001f9a:	f509 3980 	add.w	r9, r9, #65536	; 0x10000
 8001f9e:	454d      	cmp	r5, r9
 8001fa0:	d0ed      	beq.n	8001f7e <HAL_GPIO_Init+0x166>
 8001fa2:	f5a9 1980 	sub.w	r9, r9, #1048576	; 0x100000
 8001fa6:	e7e7      	b.n	8001f78 <HAL_GPIO_Init+0x160>
 8001fa8:	2400      	movs	r4, #0
 8001faa:	e75f      	b.n	8001e6c <HAL_GPIO_Init+0x54>
 8001fac:	68cc      	ldr	r4, [r1, #12]
 8001fae:	e75d      	b.n	8001e6c <HAL_GPIO_Init+0x54>
 8001fb0:	68cc      	ldr	r4, [r1, #12]
 8001fb2:	3408      	adds	r4, #8
 8001fb4:	e75a      	b.n	8001e6c <HAL_GPIO_Init+0x54>
 8001fb6:	68cc      	ldr	r4, [r1, #12]
 8001fb8:	340c      	adds	r4, #12
 8001fba:	e757      	b.n	8001e6c <HAL_GPIO_Init+0x54>
 8001fbc:	2404      	movs	r4, #4
 8001fbe:	e755      	b.n	8001e6c <HAL_GPIO_Init+0x54>
 8001fc0:	2500      	movs	r5, #0
 8001fc2:	e7a4      	b.n	8001f0e <HAL_GPIO_Init+0xf6>
 8001fc4:	2501      	movs	r5, #1
 8001fc6:	e7a2      	b.n	8001f0e <HAL_GPIO_Init+0xf6>
 8001fc8:	2502      	movs	r5, #2
 8001fca:	e7a0      	b.n	8001f0e <HAL_GPIO_Init+0xf6>
 8001fcc:	2503      	movs	r5, #3
 8001fce:	e79e      	b.n	8001f0e <HAL_GPIO_Init+0xf6>
 8001fd0:	2504      	movs	r5, #4
 8001fd2:	e79c      	b.n	8001f0e <HAL_GPIO_Init+0xf6>
 8001fd4:	40021000 	.word	0x40021000
 8001fd8:	40010400 	.word	0x40010400
 8001fdc:	40010800 	.word	0x40010800
 8001fe0:	40011c00 	.word	0x40011c00
 8001fe4:	10210000 	.word	0x10210000
 8001fe8:	10110000 	.word	0x10110000
 8001fec:	10310000 	.word	0x10310000

08001ff0 <HAL_GPIO_ReadPin>:
 8001ff0:	6883      	ldr	r3, [r0, #8]
 8001ff2:	4219      	tst	r1, r3
 8001ff4:	bf14      	ite	ne
 8001ff6:	2001      	movne	r0, #1
 8001ff8:	2000      	moveq	r0, #0
 8001ffa:	4770      	bx	lr

08001ffc <HAL_GPIO_WritePin>:
 8001ffc:	b10a      	cbz	r2, 8002002 <HAL_GPIO_WritePin+0x6>
 8001ffe:	6101      	str	r1, [r0, #16]
 8002000:	4770      	bx	lr
 8002002:	0409      	lsls	r1, r1, #16
 8002004:	e7fb      	b.n	8001ffe <HAL_GPIO_WritePin+0x2>

08002006 <HAL_GPIO_TogglePin>:
 8002006:	68c3      	ldr	r3, [r0, #12]
 8002008:	420b      	tst	r3, r1
 800200a:	bf14      	ite	ne
 800200c:	6141      	strne	r1, [r0, #20]
 800200e:	6101      	streq	r1, [r0, #16]
 8002010:	4770      	bx	lr

08002012 <HAL_PCD_Init>:
 8002012:	b5f0      	push	{r4, r5, r6, r7, lr}
 8002014:	4604      	mov	r4, r0
 8002016:	b087      	sub	sp, #28
 8002018:	b310      	cbz	r0, 8002060 <HAL_PCD_Init+0x4e>
 800201a:	f890 3229 	ldrb.w	r3, [r0, #553]	; 0x229
 800201e:	f003 02ff 	and.w	r2, r3, #255	; 0xff
 8002022:	b91b      	cbnz	r3, 800202c <HAL_PCD_Init+0x1a>
 8002024:	f880 2228 	strb.w	r2, [r0, #552]	; 0x228
 8002028:	f7ff fc62 	bl	80018f0 <HAL_PCD_MspInit>
 800202c:	4625      	mov	r5, r4
 800202e:	2303      	movs	r3, #3
 8002030:	466e      	mov	r6, sp
 8002032:	f855 0b10 	ldr.w	r0, [r5], #16
 8002036:	f884 3229 	strb.w	r3, [r4, #553]	; 0x229
 800203a:	f000 fee4 	bl	8002e06 <USB_DisableGlobalInt>
 800203e:	cd0f      	ldmia	r5!, {r0, r1, r2, r3}
 8002040:	c60f      	stmia	r6!, {r0, r1, r2, r3}
 8002042:	682b      	ldr	r3, [r5, #0]
 8002044:	4625      	mov	r5, r4
 8002046:	6033      	str	r3, [r6, #0]
 8002048:	1d27      	adds	r7, r4, #4
 800204a:	e897 000e 	ldmia.w	r7, {r1, r2, r3}
 800204e:	f855 0b10 	ldr.w	r0, [r5], #16
 8002052:	f000 fed1 	bl	8002df8 <USB_CoreInit>
 8002056:	4606      	mov	r6, r0
 8002058:	b120      	cbz	r0, 8002064 <HAL_PCD_Init+0x52>
 800205a:	2302      	movs	r3, #2
 800205c:	f884 3229 	strb.w	r3, [r4, #553]	; 0x229
 8002060:	2501      	movs	r5, #1
 8002062:	e048      	b.n	80020f6 <HAL_PCD_Init+0xe4>
 8002064:	4601      	mov	r1, r0
 8002066:	6820      	ldr	r0, [r4, #0]
 8002068:	f000 fed7 	bl	8002e1a <USB_SetCurrentMode>
 800206c:	4630      	mov	r0, r6
 800206e:	f04f 0c01 	mov.w	ip, #1
 8002072:	6861      	ldr	r1, [r4, #4]
 8002074:	b2c3      	uxtb	r3, r0
 8002076:	4299      	cmp	r1, r3
 8002078:	f100 0001 	add.w	r0, r0, #1
 800207c:	d817      	bhi.n	80020ae <HAL_PCD_Init+0x9c>
 800207e:	2200      	movs	r2, #0
 8002080:	4610      	mov	r0, r2
 8002082:	b2d3      	uxtb	r3, r2
 8002084:	4299      	cmp	r1, r3
 8002086:	f102 0201 	add.w	r2, r2, #1
 800208a:	d81d      	bhi.n	80020c8 <HAL_PCD_Init+0xb6>
 800208c:	cd0f      	ldmia	r5!, {r0, r1, r2, r3}
 800208e:	466e      	mov	r6, sp
 8002090:	c60f      	stmia	r6!, {r0, r1, r2, r3}
 8002092:	682b      	ldr	r3, [r5, #0]
 8002094:	6033      	str	r3, [r6, #0]
 8002096:	e897 000e 	ldmia.w	r7, {r1, r2, r3}
 800209a:	6820      	ldr	r0, [r4, #0]
 800209c:	f000 febf 	bl	8002e1e <USB_DevInit>
 80020a0:	2301      	movs	r3, #1
 80020a2:	4605      	mov	r5, r0
 80020a4:	b300      	cbz	r0, 80020e8 <HAL_PCD_Init+0xd6>
 80020a6:	2202      	movs	r2, #2
 80020a8:	f884 2229 	strb.w	r2, [r4, #553]	; 0x229
 80020ac:	e7d8      	b.n	8002060 <HAL_PCD_Init+0x4e>
 80020ae:	eb04 1243 	add.w	r2, r4, r3, lsl #5
 80020b2:	f882 c029 	strb.w	ip, [r2, #41]	; 0x29
 80020b6:	f882 3028 	strb.w	r3, [r2, #40]	; 0x28
 80020ba:	86d3      	strh	r3, [r2, #54]	; 0x36
 80020bc:	f882 602b 	strb.w	r6, [r2, #43]	; 0x2b
 80020c0:	e9c2 660e 	strd	r6, r6, [r2, #56]	; 0x38
 80020c4:	6416      	str	r6, [r2, #64]	; 0x40
 80020c6:	e7d5      	b.n	8002074 <HAL_PCD_Init+0x62>
 80020c8:	eb04 1643 	add.w	r6, r4, r3, lsl #5
 80020cc:	f886 3128 	strb.w	r3, [r6, #296]	; 0x128
 80020d0:	330a      	adds	r3, #10
 80020d2:	015b      	lsls	r3, r3, #5
 80020d4:	f886 0129 	strb.w	r0, [r6, #297]	; 0x129
 80020d8:	f886 012b 	strb.w	r0, [r6, #299]	; 0x12b
 80020dc:	f8c6 0138 	str.w	r0, [r6, #312]	; 0x138
 80020e0:	f8c6 013c 	str.w	r0, [r6, #316]	; 0x13c
 80020e4:	50e0      	str	r0, [r4, r3]
 80020e6:	e7cc      	b.n	8002082 <HAL_PCD_Init+0x70>
 80020e8:	f884 0024 	strb.w	r0, [r4, #36]	; 0x24
 80020ec:	f884 3229 	strb.w	r3, [r4, #553]	; 0x229
 80020f0:	6820      	ldr	r0, [r4, #0]
 80020f2:	f000 feae 	bl	8002e52 <USB_DevDisconnect>
 80020f6:	4628      	mov	r0, r5
 80020f8:	b007      	add	sp, #28
 80020fa:	bdf0      	pop	{r4, r5, r6, r7, pc}

080020fc <HAL_RCC_OscConfig>:
 80020fc:	e92d 41f3 	stmdb	sp!, {r0, r1, r4, r5, r6, r7, r8, lr}
 8002100:	4605      	mov	r5, r0
 8002102:	b908      	cbnz	r0, 8002108 <HAL_RCC_OscConfig+0xc>
 8002104:	2001      	movs	r0, #1
 8002106:	e03c      	b.n	8002182 <HAL_RCC_OscConfig+0x86>
 8002108:	6803      	ldr	r3, [r0, #0]
 800210a:	07db      	lsls	r3, r3, #31
 800210c:	d410      	bmi.n	8002130 <HAL_RCC_OscConfig+0x34>
 800210e:	682b      	ldr	r3, [r5, #0]
 8002110:	079f      	lsls	r7, r3, #30
 8002112:	d45d      	bmi.n	80021d0 <HAL_RCC_OscConfig+0xd4>
 8002114:	682b      	ldr	r3, [r5, #0]
 8002116:	0719      	lsls	r1, r3, #28
 8002118:	f100 8094 	bmi.w	8002244 <HAL_RCC_OscConfig+0x148>
 800211c:	682b      	ldr	r3, [r5, #0]
 800211e:	075a      	lsls	r2, r3, #29
 8002120:	f100 80be 	bmi.w	80022a0 <HAL_RCC_OscConfig+0x1a4>
 8002124:	69e8      	ldr	r0, [r5, #28]
 8002126:	2800      	cmp	r0, #0
 8002128:	f040 812c 	bne.w	8002384 <HAL_RCC_OscConfig+0x288>
 800212c:	2000      	movs	r0, #0
 800212e:	e028      	b.n	8002182 <HAL_RCC_OscConfig+0x86>
 8002130:	4c8f      	ldr	r4, [pc, #572]	; (8002370 <HAL_RCC_OscConfig+0x274>)
 8002132:	6863      	ldr	r3, [r4, #4]
 8002134:	f003 030c 	and.w	r3, r3, #12
 8002138:	2b04      	cmp	r3, #4
 800213a:	d007      	beq.n	800214c <HAL_RCC_OscConfig+0x50>
 800213c:	6863      	ldr	r3, [r4, #4]
 800213e:	f003 030c 	and.w	r3, r3, #12
 8002142:	2b08      	cmp	r3, #8
 8002144:	d109      	bne.n	800215a <HAL_RCC_OscConfig+0x5e>
 8002146:	6863      	ldr	r3, [r4, #4]
 8002148:	03de      	lsls	r6, r3, #15
 800214a:	d506      	bpl.n	800215a <HAL_RCC_OscConfig+0x5e>
 800214c:	6823      	ldr	r3, [r4, #0]
 800214e:	039c      	lsls	r4, r3, #14
 8002150:	d5dd      	bpl.n	800210e <HAL_RCC_OscConfig+0x12>
 8002152:	686b      	ldr	r3, [r5, #4]
 8002154:	2b00      	cmp	r3, #0
 8002156:	d1da      	bne.n	800210e <HAL_RCC_OscConfig+0x12>
 8002158:	e7d4      	b.n	8002104 <HAL_RCC_OscConfig+0x8>
 800215a:	686b      	ldr	r3, [r5, #4]
 800215c:	f5b3 3f80 	cmp.w	r3, #65536	; 0x10000
 8002160:	d112      	bne.n	8002188 <HAL_RCC_OscConfig+0x8c>
 8002162:	6823      	ldr	r3, [r4, #0]
 8002164:	f443 3380 	orr.w	r3, r3, #65536	; 0x10000
 8002168:	6023      	str	r3, [r4, #0]
 800216a:	f7ff fd25 	bl	8001bb8 <HAL_GetTick>
 800216e:	4606      	mov	r6, r0
 8002170:	6823      	ldr	r3, [r4, #0]
 8002172:	0398      	lsls	r0, r3, #14
 8002174:	d4cb      	bmi.n	800210e <HAL_RCC_OscConfig+0x12>
 8002176:	f7ff fd1f 	bl	8001bb8 <HAL_GetTick>
 800217a:	1b80      	subs	r0, r0, r6
 800217c:	2864      	cmp	r0, #100	; 0x64
 800217e:	d9f7      	bls.n	8002170 <HAL_RCC_OscConfig+0x74>
 8002180:	2003      	movs	r0, #3
 8002182:	b002      	add	sp, #8
 8002184:	e8bd 81f0 	ldmia.w	sp!, {r4, r5, r6, r7, r8, pc}
 8002188:	b99b      	cbnz	r3, 80021b2 <HAL_RCC_OscConfig+0xb6>
 800218a:	6823      	ldr	r3, [r4, #0]
 800218c:	f423 3380 	bic.w	r3, r3, #65536	; 0x10000
 8002190:	6023      	str	r3, [r4, #0]
 8002192:	6823      	ldr	r3, [r4, #0]
 8002194:	f423 2380 	bic.w	r3, r3, #262144	; 0x40000
 8002198:	6023      	str	r3, [r4, #0]
 800219a:	f7ff fd0d 	bl	8001bb8 <HAL_GetTick>
 800219e:	4606      	mov	r6, r0
 80021a0:	6823      	ldr	r3, [r4, #0]
 80021a2:	0399      	lsls	r1, r3, #14
 80021a4:	d5b3      	bpl.n	800210e <HAL_RCC_OscConfig+0x12>
 80021a6:	f7ff fd07 	bl	8001bb8 <HAL_GetTick>
 80021aa:	1b80      	subs	r0, r0, r6
 80021ac:	2864      	cmp	r0, #100	; 0x64
 80021ae:	d9f7      	bls.n	80021a0 <HAL_RCC_OscConfig+0xa4>
 80021b0:	e7e6      	b.n	8002180 <HAL_RCC_OscConfig+0x84>
 80021b2:	f5b3 2fa0 	cmp.w	r3, #327680	; 0x50000
 80021b6:	6823      	ldr	r3, [r4, #0]
 80021b8:	d103      	bne.n	80021c2 <HAL_RCC_OscConfig+0xc6>
 80021ba:	f443 2380 	orr.w	r3, r3, #262144	; 0x40000
 80021be:	6023      	str	r3, [r4, #0]
 80021c0:	e7cf      	b.n	8002162 <HAL_RCC_OscConfig+0x66>
 80021c2:	f423 3380 	bic.w	r3, r3, #65536	; 0x10000
 80021c6:	6023      	str	r3, [r4, #0]
 80021c8:	6823      	ldr	r3, [r4, #0]
 80021ca:	f423 2380 	bic.w	r3, r3, #262144	; 0x40000
 80021ce:	e7cb      	b.n	8002168 <HAL_RCC_OscConfig+0x6c>
 80021d0:	4c67      	ldr	r4, [pc, #412]	; (8002370 <HAL_RCC_OscConfig+0x274>)
 80021d2:	6863      	ldr	r3, [r4, #4]
 80021d4:	f013 0f0c 	tst.w	r3, #12
 80021d8:	d007      	beq.n	80021ea <HAL_RCC_OscConfig+0xee>
 80021da:	6863      	ldr	r3, [r4, #4]
 80021dc:	f003 030c 	and.w	r3, r3, #12
 80021e0:	2b08      	cmp	r3, #8
 80021e2:	d110      	bne.n	8002206 <HAL_RCC_OscConfig+0x10a>
 80021e4:	6863      	ldr	r3, [r4, #4]
 80021e6:	03da      	lsls	r2, r3, #15
 80021e8:	d40d      	bmi.n	8002206 <HAL_RCC_OscConfig+0x10a>
 80021ea:	6823      	ldr	r3, [r4, #0]
 80021ec:	079b      	lsls	r3, r3, #30
 80021ee:	d502      	bpl.n	80021f6 <HAL_RCC_OscConfig+0xfa>
 80021f0:	692b      	ldr	r3, [r5, #16]
 80021f2:	2b01      	cmp	r3, #1
 80021f4:	d186      	bne.n	8002104 <HAL_RCC_OscConfig+0x8>
 80021f6:	6823      	ldr	r3, [r4, #0]
 80021f8:	696a      	ldr	r2, [r5, #20]
 80021fa:	f023 03f8 	bic.w	r3, r3, #248	; 0xf8
 80021fe:	ea43 03c2 	orr.w	r3, r3, r2, lsl #3
 8002202:	6023      	str	r3, [r4, #0]
 8002204:	e786      	b.n	8002114 <HAL_RCC_OscConfig+0x18>
 8002206:	692a      	ldr	r2, [r5, #16]
 8002208:	4b5a      	ldr	r3, [pc, #360]	; (8002374 <HAL_RCC_OscConfig+0x278>)
 800220a:	b16a      	cbz	r2, 8002228 <HAL_RCC_OscConfig+0x12c>
 800220c:	2201      	movs	r2, #1
 800220e:	601a      	str	r2, [r3, #0]
 8002210:	f7ff fcd2 	bl	8001bb8 <HAL_GetTick>
 8002214:	4606      	mov	r6, r0
 8002216:	6823      	ldr	r3, [r4, #0]
 8002218:	079f      	lsls	r7, r3, #30
 800221a:	d4ec      	bmi.n	80021f6 <HAL_RCC_OscConfig+0xfa>
 800221c:	f7ff fccc 	bl	8001bb8 <HAL_GetTick>
 8002220:	1b80      	subs	r0, r0, r6
 8002222:	2802      	cmp	r0, #2
 8002224:	d9f7      	bls.n	8002216 <HAL_RCC_OscConfig+0x11a>
 8002226:	e7ab      	b.n	8002180 <HAL_RCC_OscConfig+0x84>
 8002228:	601a      	str	r2, [r3, #0]
 800222a:	f7ff fcc5 	bl	8001bb8 <HAL_GetTick>
 800222e:	4606      	mov	r6, r0
 8002230:	6823      	ldr	r3, [r4, #0]
 8002232:	0798      	lsls	r0, r3, #30
 8002234:	f57f af6e 	bpl.w	8002114 <HAL_RCC_OscConfig+0x18>
 8002238:	f7ff fcbe 	bl	8001bb8 <HAL_GetTick>
 800223c:	1b80      	subs	r0, r0, r6
 800223e:	2802      	cmp	r0, #2
 8002240:	d9f6      	bls.n	8002230 <HAL_RCC_OscConfig+0x134>
 8002242:	e79d      	b.n	8002180 <HAL_RCC_OscConfig+0x84>
 8002244:	69aa      	ldr	r2, [r5, #24]
 8002246:	4c4a      	ldr	r4, [pc, #296]	; (8002370 <HAL_RCC_OscConfig+0x274>)
 8002248:	4b4b      	ldr	r3, [pc, #300]	; (8002378 <HAL_RCC_OscConfig+0x27c>)
 800224a:	b1da      	cbz	r2, 8002284 <HAL_RCC_OscConfig+0x188>
 800224c:	2201      	movs	r2, #1
 800224e:	601a      	str	r2, [r3, #0]
 8002250:	f7ff fcb2 	bl	8001bb8 <HAL_GetTick>
 8002254:	4606      	mov	r6, r0
 8002256:	6a63      	ldr	r3, [r4, #36]	; 0x24
 8002258:	079b      	lsls	r3, r3, #30
 800225a:	d50d      	bpl.n	8002278 <HAL_RCC_OscConfig+0x17c>
 800225c:	f44f 52fa 	mov.w	r2, #8000	; 0x1f40
 8002260:	4b46      	ldr	r3, [pc, #280]	; (800237c <HAL_RCC_OscConfig+0x280>)
 8002262:	681b      	ldr	r3, [r3, #0]
 8002264:	fbb3 f3f2 	udiv	r3, r3, r2
 8002268:	9301      	str	r3, [sp, #4]
 800226a:	bf00      	nop
 800226c:	9b01      	ldr	r3, [sp, #4]
 800226e:	1e5a      	subs	r2, r3, #1
 8002270:	9201      	str	r2, [sp, #4]
 8002272:	2b00      	cmp	r3, #0
 8002274:	d1f9      	bne.n	800226a <HAL_RCC_OscConfig+0x16e>
 8002276:	e751      	b.n	800211c <HAL_RCC_OscConfig+0x20>
 8002278:	f7ff fc9e 	bl	8001bb8 <HAL_GetTick>
 800227c:	1b80      	subs	r0, r0, r6
 800227e:	2802      	cmp	r0, #2
 8002280:	d9e9      	bls.n	8002256 <HAL_RCC_OscConfig+0x15a>
 8002282:	e77d      	b.n	8002180 <HAL_RCC_OscConfig+0x84>
 8002284:	601a      	str	r2, [r3, #0]
 8002286:	f7ff fc97 	bl	8001bb8 <HAL_GetTick>
 800228a:	4606      	mov	r6, r0
 800228c:	6a63      	ldr	r3, [r4, #36]	; 0x24
 800228e:	079f      	lsls	r7, r3, #30
 8002290:	f57f af44 	bpl.w	800211c <HAL_RCC_OscConfig+0x20>
 8002294:	f7ff fc90 	bl	8001bb8 <HAL_GetTick>
 8002298:	1b80      	subs	r0, r0, r6
 800229a:	2802      	cmp	r0, #2
 800229c:	d9f6      	bls.n	800228c <HAL_RCC_OscConfig+0x190>
 800229e:	e76f      	b.n	8002180 <HAL_RCC_OscConfig+0x84>
 80022a0:	4c33      	ldr	r4, [pc, #204]	; (8002370 <HAL_RCC_OscConfig+0x274>)
 80022a2:	69e3      	ldr	r3, [r4, #28]
 80022a4:	00d8      	lsls	r0, r3, #3
 80022a6:	d424      	bmi.n	80022f2 <HAL_RCC_OscConfig+0x1f6>
 80022a8:	2701      	movs	r7, #1
 80022aa:	69e3      	ldr	r3, [r4, #28]
 80022ac:	f043 5380 	orr.w	r3, r3, #268435456	; 0x10000000
 80022b0:	61e3      	str	r3, [r4, #28]
 80022b2:	69e3      	ldr	r3, [r4, #28]
 80022b4:	f003 5380 	and.w	r3, r3, #268435456	; 0x10000000
 80022b8:	9300      	str	r3, [sp, #0]
 80022ba:	9b00      	ldr	r3, [sp, #0]
 80022bc:	4e30      	ldr	r6, [pc, #192]	; (8002380 <HAL_RCC_OscConfig+0x284>)
 80022be:	6833      	ldr	r3, [r6, #0]
 80022c0:	05d9      	lsls	r1, r3, #23
 80022c2:	d518      	bpl.n	80022f6 <HAL_RCC_OscConfig+0x1fa>
 80022c4:	68eb      	ldr	r3, [r5, #12]
 80022c6:	2b01      	cmp	r3, #1
 80022c8:	d126      	bne.n	8002318 <HAL_RCC_OscConfig+0x21c>
 80022ca:	6a23      	ldr	r3, [r4, #32]
 80022cc:	f043 0301 	orr.w	r3, r3, #1
 80022d0:	6223      	str	r3, [r4, #32]
 80022d2:	f7ff fc71 	bl	8001bb8 <HAL_GetTick>
 80022d6:	f241 3688 	movw	r6, #5000	; 0x1388
 80022da:	4680      	mov	r8, r0
 80022dc:	6a23      	ldr	r3, [r4, #32]
 80022de:	079b      	lsls	r3, r3, #30
 80022e0:	d53f      	bpl.n	8002362 <HAL_RCC_OscConfig+0x266>
 80022e2:	2f00      	cmp	r7, #0
 80022e4:	f43f af1e 	beq.w	8002124 <HAL_RCC_OscConfig+0x28>
 80022e8:	69e3      	ldr	r3, [r4, #28]
 80022ea:	f023 5380 	bic.w	r3, r3, #268435456	; 0x10000000
 80022ee:	61e3      	str	r3, [r4, #28]
 80022f0:	e718      	b.n	8002124 <HAL_RCC_OscConfig+0x28>
 80022f2:	2700      	movs	r7, #0
 80022f4:	e7e2      	b.n	80022bc <HAL_RCC_OscConfig+0x1c0>
 80022f6:	6833      	ldr	r3, [r6, #0]
 80022f8:	f443 7380 	orr.w	r3, r3, #256	; 0x100
 80022fc:	6033      	str	r3, [r6, #0]
 80022fe:	f7ff fc5b 	bl	8001bb8 <HAL_GetTick>
 8002302:	4680      	mov	r8, r0
 8002304:	6833      	ldr	r3, [r6, #0]
 8002306:	05da      	lsls	r2, r3, #23
 8002308:	d4dc      	bmi.n	80022c4 <HAL_RCC_OscConfig+0x1c8>
 800230a:	f7ff fc55 	bl	8001bb8 <HAL_GetTick>
 800230e:	eba0 0008 	sub.w	r0, r0, r8
 8002312:	2864      	cmp	r0, #100	; 0x64
 8002314:	d9f6      	bls.n	8002304 <HAL_RCC_OscConfig+0x208>
 8002316:	e733      	b.n	8002180 <HAL_RCC_OscConfig+0x84>
 8002318:	b9ab      	cbnz	r3, 8002346 <HAL_RCC_OscConfig+0x24a>
 800231a:	6a23      	ldr	r3, [r4, #32]
 800231c:	f241 3888 	movw	r8, #5000	; 0x1388
 8002320:	f023 0301 	bic.w	r3, r3, #1
 8002324:	6223      	str	r3, [r4, #32]
 8002326:	6a23      	ldr	r3, [r4, #32]
 8002328:	f023 0304 	bic.w	r3, r3, #4
 800232c:	6223      	str	r3, [r4, #32]
 800232e:	f7ff fc43 	bl	8001bb8 <HAL_GetTick>
 8002332:	4606      	mov	r6, r0
 8002334:	6a23      	ldr	r3, [r4, #32]
 8002336:	0798      	lsls	r0, r3, #30
 8002338:	d5d3      	bpl.n	80022e2 <HAL_RCC_OscConfig+0x1e6>
 800233a:	f7ff fc3d 	bl	8001bb8 <HAL_GetTick>
 800233e:	1b80      	subs	r0, r0, r6
 8002340:	4540      	cmp	r0, r8
 8002342:	d9f7      	bls.n	8002334 <HAL_RCC_OscConfig+0x238>
 8002344:	e71c      	b.n	8002180 <HAL_RCC_OscConfig+0x84>
 8002346:	2b05      	cmp	r3, #5
 8002348:	6a23      	ldr	r3, [r4, #32]
 800234a:	d103      	bne.n	8002354 <HAL_RCC_OscConfig+0x258>
 800234c:	f043 0304 	orr.w	r3, r3, #4
 8002350:	6223      	str	r3, [r4, #32]
 8002352:	e7ba      	b.n	80022ca <HAL_RCC_OscConfig+0x1ce>
 8002354:	f023 0301 	bic.w	r3, r3, #1
 8002358:	6223      	str	r3, [r4, #32]
 800235a:	6a23      	ldr	r3, [r4, #32]
 800235c:	f023 0304 	bic.w	r3, r3, #4
 8002360:	e7b6      	b.n	80022d0 <HAL_RCC_OscConfig+0x1d4>
 8002362:	f7ff fc29 	bl	8001bb8 <HAL_GetTick>
 8002366:	eba0 0008 	sub.w	r0, r0, r8
 800236a:	42b0      	cmp	r0, r6
 800236c:	d9b6      	bls.n	80022dc <HAL_RCC_OscConfig+0x1e0>
 800236e:	e707      	b.n	8002180 <HAL_RCC_OscConfig+0x84>
 8002370:	40021000 	.word	0x40021000
 8002374:	42420000 	.word	0x42420000
 8002378:	42420480 	.word	0x42420480
 800237c:	20000014 	.word	0x20000014
 8002380:	40007000 	.word	0x40007000
 8002384:	4b2a      	ldr	r3, [pc, #168]	; (8002430 <HAL_RCC_OscConfig+0x334>)
 8002386:	685a      	ldr	r2, [r3, #4]
 8002388:	461c      	mov	r4, r3
 800238a:	f002 020c 	and.w	r2, r2, #12
 800238e:	2a08      	cmp	r2, #8
 8002390:	d03d      	beq.n	800240e <HAL_RCC_OscConfig+0x312>
 8002392:	2300      	movs	r3, #0
 8002394:	4e27      	ldr	r6, [pc, #156]	; (8002434 <HAL_RCC_OscConfig+0x338>)
 8002396:	2802      	cmp	r0, #2
 8002398:	6033      	str	r3, [r6, #0]
 800239a:	d12b      	bne.n	80023f4 <HAL_RCC_OscConfig+0x2f8>
 800239c:	f7ff fc0c 	bl	8001bb8 <HAL_GetTick>
 80023a0:	4607      	mov	r7, r0
 80023a2:	6823      	ldr	r3, [r4, #0]
 80023a4:	0199      	lsls	r1, r3, #6
 80023a6:	d41f      	bmi.n	80023e8 <HAL_RCC_OscConfig+0x2ec>
 80023a8:	6a2b      	ldr	r3, [r5, #32]
 80023aa:	f5b3 3f80 	cmp.w	r3, #65536	; 0x10000
 80023ae:	d105      	bne.n	80023bc <HAL_RCC_OscConfig+0x2c0>
 80023b0:	6862      	ldr	r2, [r4, #4]
 80023b2:	68a9      	ldr	r1, [r5, #8]
 80023b4:	f422 3200 	bic.w	r2, r2, #131072	; 0x20000
 80023b8:	430a      	orrs	r2, r1
 80023ba:	6062      	str	r2, [r4, #4]
 80023bc:	6a69      	ldr	r1, [r5, #36]	; 0x24
 80023be:	6862      	ldr	r2, [r4, #4]
 80023c0:	430b      	orrs	r3, r1
 80023c2:	f422 1274 	bic.w	r2, r2, #3997696	; 0x3d0000
 80023c6:	4313      	orrs	r3, r2
 80023c8:	6063      	str	r3, [r4, #4]
 80023ca:	2301      	movs	r3, #1
 80023cc:	6033      	str	r3, [r6, #0]
 80023ce:	f7ff fbf3 	bl	8001bb8 <HAL_GetTick>
 80023d2:	4605      	mov	r5, r0
 80023d4:	6823      	ldr	r3, [r4, #0]
 80023d6:	019a      	lsls	r2, r3, #6
 80023d8:	f53f aea8 	bmi.w	800212c <HAL_RCC_OscConfig+0x30>
 80023dc:	f7ff fbec 	bl	8001bb8 <HAL_GetTick>
 80023e0:	1b40      	subs	r0, r0, r5
 80023e2:	2802      	cmp	r0, #2
 80023e4:	d9f6      	bls.n	80023d4 <HAL_RCC_OscConfig+0x2d8>
 80023e6:	e6cb      	b.n	8002180 <HAL_RCC_OscConfig+0x84>
 80023e8:	f7ff fbe6 	bl	8001bb8 <HAL_GetTick>
 80023ec:	1bc0      	subs	r0, r0, r7
 80023ee:	2802      	cmp	r0, #2
 80023f0:	d9d7      	bls.n	80023a2 <HAL_RCC_OscConfig+0x2a6>
 80023f2:	e6c5      	b.n	8002180 <HAL_RCC_OscConfig+0x84>
 80023f4:	f7ff fbe0 	bl	8001bb8 <HAL_GetTick>
 80023f8:	4605      	mov	r5, r0
 80023fa:	6823      	ldr	r3, [r4, #0]
 80023fc:	019b      	lsls	r3, r3, #6
 80023fe:	f57f ae95 	bpl.w	800212c <HAL_RCC_OscConfig+0x30>
 8002402:	f7ff fbd9 	bl	8001bb8 <HAL_GetTick>
 8002406:	1b40      	subs	r0, r0, r5
 8002408:	2802      	cmp	r0, #2
 800240a:	d9f6      	bls.n	80023fa <HAL_RCC_OscConfig+0x2fe>
 800240c:	e6b8      	b.n	8002180 <HAL_RCC_OscConfig+0x84>
 800240e:	2801      	cmp	r0, #1
 8002410:	f43f aeb7 	beq.w	8002182 <HAL_RCC_OscConfig+0x86>
 8002414:	6858      	ldr	r0, [r3, #4]
 8002416:	6a2b      	ldr	r3, [r5, #32]
 8002418:	f400 3280 	and.w	r2, r0, #65536	; 0x10000
 800241c:	429a      	cmp	r2, r3
 800241e:	f47f ae71 	bne.w	8002104 <HAL_RCC_OscConfig+0x8>
 8002422:	6a6b      	ldr	r3, [r5, #36]	; 0x24
 8002424:	f400 1070 	and.w	r0, r0, #3932160	; 0x3c0000
 8002428:	1ac0      	subs	r0, r0, r3
 800242a:	bf18      	it	ne
 800242c:	2001      	movne	r0, #1
 800242e:	e6a8      	b.n	8002182 <HAL_RCC_OscConfig+0x86>
 8002430:	40021000 	.word	0x40021000
 8002434:	42420060 	.word	0x42420060

08002438 <HAL_RCC_GetSysClockFreq>:
 8002438:	b530      	push	{r4, r5, lr}
 800243a:	4b18      	ldr	r3, [pc, #96]	; (800249c <HAL_RCC_GetSysClockFreq+0x64>)
 800243c:	b087      	sub	sp, #28
 800243e:	ac02      	add	r4, sp, #8
 8002440:	f103 0510 	add.w	r5, r3, #16
 8002444:	4622      	mov	r2, r4
 8002446:	6818      	ldr	r0, [r3, #0]
 8002448:	6859      	ldr	r1, [r3, #4]
 800244a:	3308      	adds	r3, #8
 800244c:	c203      	stmia	r2!, {r0, r1}
 800244e:	42ab      	cmp	r3, r5
 8002450:	4614      	mov	r4, r2
 8002452:	d1f7      	bne.n	8002444 <HAL_RCC_GetSysClockFreq+0xc>
 8002454:	f240 2301 	movw	r3, #513	; 0x201
 8002458:	4911      	ldr	r1, [pc, #68]	; (80024a0 <HAL_RCC_GetSysClockFreq+0x68>)
 800245a:	f8ad 3004 	strh.w	r3, [sp, #4]
 800245e:	684b      	ldr	r3, [r1, #4]
 8002460:	f003 020c 	and.w	r2, r3, #12
 8002464:	2a08      	cmp	r2, #8
 8002466:	d117      	bne.n	8002498 <HAL_RCC_GetSysClockFreq+0x60>
 8002468:	f3c3 4283 	ubfx	r2, r3, #18, #4
 800246c:	a806      	add	r0, sp, #24
 800246e:	4402      	add	r2, r0
 8002470:	03db      	lsls	r3, r3, #15
 8002472:	f812 2c10 	ldrb.w	r2, [r2, #-16]
 8002476:	d50c      	bpl.n	8002492 <HAL_RCC_GetSysClockFreq+0x5a>
 8002478:	684b      	ldr	r3, [r1, #4]
 800247a:	480a      	ldr	r0, [pc, #40]	; (80024a4 <HAL_RCC_GetSysClockFreq+0x6c>)
 800247c:	f3c3 4340 	ubfx	r3, r3, #17, #1
 8002480:	4350      	muls	r0, r2
 8002482:	aa06      	add	r2, sp, #24
 8002484:	4413      	add	r3, r2
 8002486:	f813 3c14 	ldrb.w	r3, [r3, #-20]
 800248a:	fbb0 f0f3 	udiv	r0, r0, r3
 800248e:	b007      	add	sp, #28
 8002490:	bd30      	pop	{r4, r5, pc}
 8002492:	4805      	ldr	r0, [pc, #20]	; (80024a8 <HAL_RCC_GetSysClockFreq+0x70>)
 8002494:	4350      	muls	r0, r2
 8002496:	e7fa      	b.n	800248e <HAL_RCC_GetSysClockFreq+0x56>
 8002498:	4802      	ldr	r0, [pc, #8]	; (80024a4 <HAL_RCC_GetSysClockFreq+0x6c>)
 800249a:	e7f8      	b.n	800248e <HAL_RCC_GetSysClockFreq+0x56>
 800249c:	08002ec8 	.word	0x08002ec8
 80024a0:	40021000 	.word	0x40021000
 80024a4:	007a1200 	.word	0x007a1200
 80024a8:	003d0900 	.word	0x003d0900

080024ac <HAL_RCC_ClockConfig>:
 80024ac:	e92d 41f0 	stmdb	sp!, {r4, r5, r6, r7, r8, lr}
 80024b0:	460d      	mov	r5, r1
 80024b2:	4604      	mov	r4, r0
 80024b4:	b910      	cbnz	r0, 80024bc <HAL_RCC_ClockConfig+0x10>
 80024b6:	2001      	movs	r0, #1
 80024b8:	e8bd 81f0 	ldmia.w	sp!, {r4, r5, r6, r7, r8, pc}
 80024bc:	4a44      	ldr	r2, [pc, #272]	; (80025d0 <HAL_RCC_ClockConfig+0x124>)
 80024be:	6813      	ldr	r3, [r2, #0]
 80024c0:	f003 0307 	and.w	r3, r3, #7
 80024c4:	428b      	cmp	r3, r1
 80024c6:	d328      	bcc.n	800251a <HAL_RCC_ClockConfig+0x6e>
 80024c8:	6821      	ldr	r1, [r4, #0]
 80024ca:	078e      	lsls	r6, r1, #30
 80024cc:	d430      	bmi.n	8002530 <HAL_RCC_ClockConfig+0x84>
 80024ce:	07ca      	lsls	r2, r1, #31
 80024d0:	d443      	bmi.n	800255a <HAL_RCC_ClockConfig+0xae>
 80024d2:	4a3f      	ldr	r2, [pc, #252]	; (80025d0 <HAL_RCC_ClockConfig+0x124>)
 80024d4:	6813      	ldr	r3, [r2, #0]
 80024d6:	f003 0307 	and.w	r3, r3, #7
 80024da:	42ab      	cmp	r3, r5
 80024dc:	d865      	bhi.n	80025aa <HAL_RCC_ClockConfig+0xfe>
 80024de:	6822      	ldr	r2, [r4, #0]
 80024e0:	4d3c      	ldr	r5, [pc, #240]	; (80025d4 <HAL_RCC_ClockConfig+0x128>)
 80024e2:	f012 0f04 	tst.w	r2, #4
 80024e6:	d16c      	bne.n	80025c2 <HAL_RCC_ClockConfig+0x116>
 80024e8:	0713      	lsls	r3, r2, #28
 80024ea:	d506      	bpl.n	80024fa <HAL_RCC_ClockConfig+0x4e>
 80024ec:	686b      	ldr	r3, [r5, #4]
 80024ee:	6922      	ldr	r2, [r4, #16]
 80024f0:	f423 5360 	bic.w	r3, r3, #14336	; 0x3800
 80024f4:	ea43 03c2 	orr.w	r3, r3, r2, lsl #3
 80024f8:	606b      	str	r3, [r5, #4]
 80024fa:	f7ff ff9d 	bl	8002438 <HAL_RCC_GetSysClockFreq>
 80024fe:	686b      	ldr	r3, [r5, #4]
 8002500:	4a35      	ldr	r2, [pc, #212]	; (80025d8 <HAL_RCC_ClockConfig+0x12c>)
 8002502:	f3c3 1303 	ubfx	r3, r3, #4, #4
 8002506:	5cd3      	ldrb	r3, [r2, r3]
 8002508:	40d8      	lsrs	r0, r3
 800250a:	4b34      	ldr	r3, [pc, #208]	; (80025dc <HAL_RCC_ClockConfig+0x130>)
 800250c:	6018      	str	r0, [r3, #0]
 800250e:	4b34      	ldr	r3, [pc, #208]	; (80025e0 <HAL_RCC_ClockConfig+0x134>)
 8002510:	6818      	ldr	r0, [r3, #0]
 8002512:	f7ff fb0f 	bl	8001b34 <HAL_InitTick>
 8002516:	2000      	movs	r0, #0
 8002518:	e7ce      	b.n	80024b8 <HAL_RCC_ClockConfig+0xc>
 800251a:	6813      	ldr	r3, [r2, #0]
 800251c:	f023 0307 	bic.w	r3, r3, #7
 8002520:	430b      	orrs	r3, r1
 8002522:	6013      	str	r3, [r2, #0]
 8002524:	6813      	ldr	r3, [r2, #0]
 8002526:	f003 0307 	and.w	r3, r3, #7
 800252a:	428b      	cmp	r3, r1
 800252c:	d1c3      	bne.n	80024b6 <HAL_RCC_ClockConfig+0xa>
 800252e:	e7cb      	b.n	80024c8 <HAL_RCC_ClockConfig+0x1c>
 8002530:	4b28      	ldr	r3, [pc, #160]	; (80025d4 <HAL_RCC_ClockConfig+0x128>)
 8002532:	f011 0f04 	tst.w	r1, #4
 8002536:	bf1e      	ittt	ne
 8002538:	685a      	ldrne	r2, [r3, #4]
 800253a:	f442 62e0 	orrne.w	r2, r2, #1792	; 0x700
 800253e:	605a      	strne	r2, [r3, #4]
 8002540:	0708      	lsls	r0, r1, #28
 8002542:	bf42      	ittt	mi
 8002544:	685a      	ldrmi	r2, [r3, #4]
 8002546:	f442 5260 	orrmi.w	r2, r2, #14336	; 0x3800
 800254a:	605a      	strmi	r2, [r3, #4]
 800254c:	685a      	ldr	r2, [r3, #4]
 800254e:	68a0      	ldr	r0, [r4, #8]
 8002550:	f022 02f0 	bic.w	r2, r2, #240	; 0xf0
 8002554:	4302      	orrs	r2, r0
 8002556:	605a      	str	r2, [r3, #4]
 8002558:	e7b9      	b.n	80024ce <HAL_RCC_ClockConfig+0x22>
 800255a:	6862      	ldr	r2, [r4, #4]
 800255c:	4e1d      	ldr	r6, [pc, #116]	; (80025d4 <HAL_RCC_ClockConfig+0x128>)
 800255e:	2a01      	cmp	r2, #1
 8002560:	6833      	ldr	r3, [r6, #0]
 8002562:	d11a      	bne.n	800259a <HAL_RCC_ClockConfig+0xee>
 8002564:	f413 3f00 	tst.w	r3, #131072	; 0x20000
 8002568:	d0a5      	beq.n	80024b6 <HAL_RCC_ClockConfig+0xa>
 800256a:	6873      	ldr	r3, [r6, #4]
 800256c:	f241 3888 	movw	r8, #5000	; 0x1388
 8002570:	f023 0303 	bic.w	r3, r3, #3
 8002574:	4313      	orrs	r3, r2
 8002576:	6073      	str	r3, [r6, #4]
 8002578:	f7ff fb1e 	bl	8001bb8 <HAL_GetTick>
 800257c:	4607      	mov	r7, r0
 800257e:	6873      	ldr	r3, [r6, #4]
 8002580:	6862      	ldr	r2, [r4, #4]
 8002582:	f003 030c 	and.w	r3, r3, #12
 8002586:	ebb3 0f82 	cmp.w	r3, r2, lsl #2
 800258a:	d0a2      	beq.n	80024d2 <HAL_RCC_ClockConfig+0x26>
 800258c:	f7ff fb14 	bl	8001bb8 <HAL_GetTick>
 8002590:	1bc0      	subs	r0, r0, r7
 8002592:	4540      	cmp	r0, r8
 8002594:	d9f3      	bls.n	800257e <HAL_RCC_ClockConfig+0xd2>
 8002596:	2003      	movs	r0, #3
 8002598:	e78e      	b.n	80024b8 <HAL_RCC_ClockConfig+0xc>
 800259a:	2a02      	cmp	r2, #2
 800259c:	d102      	bne.n	80025a4 <HAL_RCC_ClockConfig+0xf8>
 800259e:	f013 7f00 	tst.w	r3, #33554432	; 0x2000000
 80025a2:	e7e1      	b.n	8002568 <HAL_RCC_ClockConfig+0xbc>
 80025a4:	f013 0f02 	tst.w	r3, #2
 80025a8:	e7de      	b.n	8002568 <HAL_RCC_ClockConfig+0xbc>
 80025aa:	6813      	ldr	r3, [r2, #0]
 80025ac:	f023 0307 	bic.w	r3, r3, #7
 80025b0:	432b      	orrs	r3, r5
 80025b2:	6013      	str	r3, [r2, #0]
 80025b4:	6813      	ldr	r3, [r2, #0]
 80025b6:	f003 0307 	and.w	r3, r3, #7
 80025ba:	42ab      	cmp	r3, r5
 80025bc:	f47f af7b 	bne.w	80024b6 <HAL_RCC_ClockConfig+0xa>
 80025c0:	e78d      	b.n	80024de <HAL_RCC_ClockConfig+0x32>
 80025c2:	686b      	ldr	r3, [r5, #4]
 80025c4:	68e1      	ldr	r1, [r4, #12]
 80025c6:	f423 63e0 	bic.w	r3, r3, #1792	; 0x700
 80025ca:	430b      	orrs	r3, r1
 80025cc:	606b      	str	r3, [r5, #4]
 80025ce:	e78b      	b.n	80024e8 <HAL_RCC_ClockConfig+0x3c>
 80025d0:	40022000 	.word	0x40022000
 80025d4:	40021000 	.word	0x40021000
 80025d8:	0800cfd0 	.word	0x0800cfd0
 80025dc:	20000014 	.word	0x20000014
 80025e0:	2000001c 	.word	0x2000001c

080025e4 <HAL_RCC_GetPCLK1Freq>:
 80025e4:	4b04      	ldr	r3, [pc, #16]	; (80025f8 <HAL_RCC_GetPCLK1Freq+0x14>)
 80025e6:	4a05      	ldr	r2, [pc, #20]	; (80025fc <HAL_RCC_GetPCLK1Freq+0x18>)
 80025e8:	685b      	ldr	r3, [r3, #4]
 80025ea:	f3c3 2302 	ubfx	r3, r3, #8, #3
 80025ee:	5cd3      	ldrb	r3, [r2, r3]
 80025f0:	4a03      	ldr	r2, [pc, #12]	; (8002600 <HAL_RCC_GetPCLK1Freq+0x1c>)
 80025f2:	6810      	ldr	r0, [r2, #0]
 80025f4:	40d8      	lsrs	r0, r3
 80025f6:	4770      	bx	lr
 80025f8:	40021000 	.word	0x40021000
 80025fc:	0800cfe0 	.word	0x0800cfe0
 8002600:	20000014 	.word	0x20000014

08002604 <HAL_RCC_GetPCLK2Freq>:
 8002604:	4b04      	ldr	r3, [pc, #16]	; (8002618 <HAL_RCC_GetPCLK2Freq+0x14>)
 8002606:	4a05      	ldr	r2, [pc, #20]	; (800261c <HAL_RCC_GetPCLK2Freq+0x18>)
 8002608:	685b      	ldr	r3, [r3, #4]
 800260a:	f3c3 23c2 	ubfx	r3, r3, #11, #3
 800260e:	5cd3      	ldrb	r3, [r2, r3]
 8002610:	4a03      	ldr	r2, [pc, #12]	; (8002620 <HAL_RCC_GetPCLK2Freq+0x1c>)
 8002612:	6810      	ldr	r0, [r2, #0]
 8002614:	40d8      	lsrs	r0, r3
 8002616:	4770      	bx	lr
 8002618:	40021000 	.word	0x40021000
 800261c:	0800cfe0 	.word	0x0800cfe0
 8002620:	20000014 	.word	0x20000014

08002624 <HAL_RCCEx_PeriphCLKConfig>:
 8002624:	6803      	ldr	r3, [r0, #0]
 8002626:	e92d 41f3 	stmdb	sp!, {r0, r1, r4, r5, r6, r7, r8, lr}
 800262a:	07d9      	lsls	r1, r3, #31
 800262c:	4605      	mov	r5, r0
 800262e:	d520      	bpl.n	8002672 <HAL_RCCEx_PeriphCLKConfig+0x4e>
 8002630:	4c35      	ldr	r4, [pc, #212]	; (8002708 <HAL_RCCEx_PeriphCLKConfig+0xe4>)
 8002632:	69e3      	ldr	r3, [r4, #28]
 8002634:	00da      	lsls	r2, r3, #3
 8002636:	d432      	bmi.n	800269e <HAL_RCCEx_PeriphCLKConfig+0x7a>
 8002638:	2701      	movs	r7, #1
 800263a:	69e3      	ldr	r3, [r4, #28]
 800263c:	f043 5380 	orr.w	r3, r3, #268435456	; 0x10000000
 8002640:	61e3      	str	r3, [r4, #28]
 8002642:	69e3      	ldr	r3, [r4, #28]
 8002644:	f003 5380 	and.w	r3, r3, #268435456	; 0x10000000
 8002648:	9301      	str	r3, [sp, #4]
 800264a:	9b01      	ldr	r3, [sp, #4]
 800264c:	4e2f      	ldr	r6, [pc, #188]	; (800270c <HAL_RCCEx_PeriphCLKConfig+0xe8>)
 800264e:	6833      	ldr	r3, [r6, #0]
 8002650:	05db      	lsls	r3, r3, #23
 8002652:	d526      	bpl.n	80026a2 <HAL_RCCEx_PeriphCLKConfig+0x7e>
 8002654:	6a23      	ldr	r3, [r4, #32]
 8002656:	f413 7340 	ands.w	r3, r3, #768	; 0x300
 800265a:	d136      	bne.n	80026ca <HAL_RCCEx_PeriphCLKConfig+0xa6>
 800265c:	6a23      	ldr	r3, [r4, #32]
 800265e:	686a      	ldr	r2, [r5, #4]
 8002660:	f423 7340 	bic.w	r3, r3, #768	; 0x300
 8002664:	4313      	orrs	r3, r2
 8002666:	6223      	str	r3, [r4, #32]
 8002668:	b11f      	cbz	r7, 8002672 <HAL_RCCEx_PeriphCLKConfig+0x4e>
 800266a:	69e3      	ldr	r3, [r4, #28]
 800266c:	f023 5380 	bic.w	r3, r3, #268435456	; 0x10000000
 8002670:	61e3      	str	r3, [r4, #28]
 8002672:	6828      	ldr	r0, [r5, #0]
 8002674:	0783      	lsls	r3, r0, #30
 8002676:	d506      	bpl.n	8002686 <HAL_RCCEx_PeriphCLKConfig+0x62>
 8002678:	4a23      	ldr	r2, [pc, #140]	; (8002708 <HAL_RCCEx_PeriphCLKConfig+0xe4>)
 800267a:	68a9      	ldr	r1, [r5, #8]
 800267c:	6853      	ldr	r3, [r2, #4]
 800267e:	f423 4340 	bic.w	r3, r3, #49152	; 0xc000
 8002682:	430b      	orrs	r3, r1
 8002684:	6053      	str	r3, [r2, #4]
 8002686:	f010 0010 	ands.w	r0, r0, #16
 800268a:	d01b      	beq.n	80026c4 <HAL_RCCEx_PeriphCLKConfig+0xa0>
 800268c:	4a1e      	ldr	r2, [pc, #120]	; (8002708 <HAL_RCCEx_PeriphCLKConfig+0xe4>)
 800268e:	6969      	ldr	r1, [r5, #20]
 8002690:	6853      	ldr	r3, [r2, #4]
 8002692:	2000      	movs	r0, #0
 8002694:	f423 0380 	bic.w	r3, r3, #4194304	; 0x400000
 8002698:	430b      	orrs	r3, r1
 800269a:	6053      	str	r3, [r2, #4]
 800269c:	e012      	b.n	80026c4 <HAL_RCCEx_PeriphCLKConfig+0xa0>
 800269e:	2700      	movs	r7, #0
 80026a0:	e7d4      	b.n	800264c <HAL_RCCEx_PeriphCLKConfig+0x28>
 80026a2:	6833      	ldr	r3, [r6, #0]
 80026a4:	f443 7380 	orr.w	r3, r3, #256	; 0x100
 80026a8:	6033      	str	r3, [r6, #0]
 80026aa:	f7ff fa85 	bl	8001bb8 <HAL_GetTick>
 80026ae:	4680      	mov	r8, r0
 80026b0:	6833      	ldr	r3, [r6, #0]
 80026b2:	05d8      	lsls	r0, r3, #23
 80026b4:	d4ce      	bmi.n	8002654 <HAL_RCCEx_PeriphCLKConfig+0x30>
 80026b6:	f7ff fa7f 	bl	8001bb8 <HAL_GetTick>
 80026ba:	eba0 0008 	sub.w	r0, r0, r8
 80026be:	2864      	cmp	r0, #100	; 0x64
 80026c0:	d9f6      	bls.n	80026b0 <HAL_RCCEx_PeriphCLKConfig+0x8c>
 80026c2:	2003      	movs	r0, #3
 80026c4:	b002      	add	sp, #8
 80026c6:	e8bd 81f0 	ldmia.w	sp!, {r4, r5, r6, r7, r8, pc}
 80026ca:	686a      	ldr	r2, [r5, #4]
 80026cc:	f402 7240 	and.w	r2, r2, #768	; 0x300
 80026d0:	429a      	cmp	r2, r3
 80026d2:	d0c3      	beq.n	800265c <HAL_RCCEx_PeriphCLKConfig+0x38>
 80026d4:	2001      	movs	r0, #1
 80026d6:	4a0e      	ldr	r2, [pc, #56]	; (8002710 <HAL_RCCEx_PeriphCLKConfig+0xec>)
 80026d8:	6a23      	ldr	r3, [r4, #32]
 80026da:	6010      	str	r0, [r2, #0]
 80026dc:	2000      	movs	r0, #0
 80026de:	f423 7140 	bic.w	r1, r3, #768	; 0x300
 80026e2:	6010      	str	r0, [r2, #0]
 80026e4:	6221      	str	r1, [r4, #32]
 80026e6:	07d9      	lsls	r1, r3, #31
 80026e8:	d5b8      	bpl.n	800265c <HAL_RCCEx_PeriphCLKConfig+0x38>
 80026ea:	f7ff fa65 	bl	8001bb8 <HAL_GetTick>
 80026ee:	f241 3888 	movw	r8, #5000	; 0x1388
 80026f2:	4606      	mov	r6, r0
 80026f4:	6a23      	ldr	r3, [r4, #32]
 80026f6:	079a      	lsls	r2, r3, #30
 80026f8:	d4b0      	bmi.n	800265c <HAL_RCCEx_PeriphCLKConfig+0x38>
 80026fa:	f7ff fa5d 	bl	8001bb8 <HAL_GetTick>
 80026fe:	1b80      	subs	r0, r0, r6
 8002700:	4540      	cmp	r0, r8
 8002702:	d9f7      	bls.n	80026f4 <HAL_RCCEx_PeriphCLKConfig+0xd0>
 8002704:	e7dd      	b.n	80026c2 <HAL_RCCEx_PeriphCLKConfig+0x9e>
 8002706:	bf00      	nop
 8002708:	40021000 	.word	0x40021000
 800270c:	40007000 	.word	0x40007000
 8002710:	42420440 	.word	0x42420440

08002714 <HAL_TIM_Base_Start_IT>:
 8002714:	6803      	ldr	r3, [r0, #0]
 8002716:	2000      	movs	r0, #0
 8002718:	68da      	ldr	r2, [r3, #12]
 800271a:	f042 0201 	orr.w	r2, r2, #1
 800271e:	60da      	str	r2, [r3, #12]
 8002720:	689a      	ldr	r2, [r3, #8]
 8002722:	f002 0207 	and.w	r2, r2, #7
 8002726:	2a06      	cmp	r2, #6
 8002728:	bf1e      	ittt	ne
 800272a:	681a      	ldrne	r2, [r3, #0]
 800272c:	f042 0201 	orrne.w	r2, r2, #1
 8002730:	601a      	strne	r2, [r3, #0]
 8002732:	4770      	bx	lr

08002734 <HAL_TIM_Base_Stop_IT>:
 8002734:	6803      	ldr	r3, [r0, #0]
 8002736:	68da      	ldr	r2, [r3, #12]
 8002738:	f022 0201 	bic.w	r2, r2, #1
 800273c:	60da      	str	r2, [r3, #12]
 800273e:	f241 1211 	movw	r2, #4369	; 0x1111
 8002742:	6a19      	ldr	r1, [r3, #32]
 8002744:	4211      	tst	r1, r2
 8002746:	d108      	bne.n	800275a <HAL_TIM_Base_Stop_IT+0x26>
 8002748:	f240 4244 	movw	r2, #1092	; 0x444
 800274c:	6a19      	ldr	r1, [r3, #32]
 800274e:	4211      	tst	r1, r2
 8002750:	bf02      	ittt	eq
 8002752:	681a      	ldreq	r2, [r3, #0]
 8002754:	f022 0201 	biceq.w	r2, r2, #1
 8002758:	601a      	streq	r2, [r3, #0]
 800275a:	2000      	movs	r0, #0
 800275c:	4770      	bx	lr

0800275e <HAL_TIM_OC_DelayElapsedCallback>:
 800275e:	4770      	bx	lr

08002760 <HAL_TIM_IC_CaptureCallback>:
 8002760:	4770      	bx	lr

08002762 <HAL_TIM_PWM_PulseFinishedCallback>:
 8002762:	4770      	bx	lr

08002764 <HAL_TIM_TriggerCallback>:
 8002764:	4770      	bx	lr

08002766 <HAL_TIM_IRQHandler>:
 8002766:	6803      	ldr	r3, [r0, #0]
 8002768:	b510      	push	{r4, lr}
 800276a:	691a      	ldr	r2, [r3, #16]
 800276c:	4604      	mov	r4, r0
 800276e:	0791      	lsls	r1, r2, #30
 8002770:	d50e      	bpl.n	8002790 <HAL_TIM_IRQHandler+0x2a>
 8002772:	68da      	ldr	r2, [r3, #12]
 8002774:	0792      	lsls	r2, r2, #30
 8002776:	d50b      	bpl.n	8002790 <HAL_TIM_IRQHandler+0x2a>
 8002778:	f06f 0202 	mvn.w	r2, #2
 800277c:	611a      	str	r2, [r3, #16]
 800277e:	2201      	movs	r2, #1
 8002780:	699b      	ldr	r3, [r3, #24]
 8002782:	7702      	strb	r2, [r0, #28]
 8002784:	079b      	lsls	r3, r3, #30
 8002786:	d077      	beq.n	8002878 <HAL_TIM_IRQHandler+0x112>
 8002788:	f7ff ffea 	bl	8002760 <HAL_TIM_IC_CaptureCallback>
 800278c:	2300      	movs	r3, #0
 800278e:	7723      	strb	r3, [r4, #28]
 8002790:	6823      	ldr	r3, [r4, #0]
 8002792:	691a      	ldr	r2, [r3, #16]
 8002794:	0750      	lsls	r0, r2, #29
 8002796:	d510      	bpl.n	80027ba <HAL_TIM_IRQHandler+0x54>
 8002798:	68da      	ldr	r2, [r3, #12]
 800279a:	0751      	lsls	r1, r2, #29
 800279c:	d50d      	bpl.n	80027ba <HAL_TIM_IRQHandler+0x54>
 800279e:	f06f 0204 	mvn.w	r2, #4
 80027a2:	611a      	str	r2, [r3, #16]
 80027a4:	2202      	movs	r2, #2
 80027a6:	699b      	ldr	r3, [r3, #24]
 80027a8:	7722      	strb	r2, [r4, #28]
 80027aa:	f413 7f40 	tst.w	r3, #768	; 0x300
 80027ae:	4620      	mov	r0, r4
 80027b0:	d068      	beq.n	8002884 <HAL_TIM_IRQHandler+0x11e>
 80027b2:	f7ff ffd5 	bl	8002760 <HAL_TIM_IC_CaptureCallback>
 80027b6:	2300      	movs	r3, #0
 80027b8:	7723      	strb	r3, [r4, #28]
 80027ba:	6823      	ldr	r3, [r4, #0]
 80027bc:	691a      	ldr	r2, [r3, #16]
 80027be:	0712      	lsls	r2, r2, #28
 80027c0:	d50f      	bpl.n	80027e2 <HAL_TIM_IRQHandler+0x7c>
 80027c2:	68da      	ldr	r2, [r3, #12]
 80027c4:	0710      	lsls	r0, r2, #28
 80027c6:	d50c      	bpl.n	80027e2 <HAL_TIM_IRQHandler+0x7c>
 80027c8:	f06f 0208 	mvn.w	r2, #8
 80027cc:	611a      	str	r2, [r3, #16]
 80027ce:	2204      	movs	r2, #4
 80027d0:	69db      	ldr	r3, [r3, #28]
 80027d2:	7722      	strb	r2, [r4, #28]
 80027d4:	0799      	lsls	r1, r3, #30
 80027d6:	4620      	mov	r0, r4
 80027d8:	d05a      	beq.n	8002890 <HAL_TIM_IRQHandler+0x12a>
 80027da:	f7ff ffc1 	bl	8002760 <HAL_TIM_IC_CaptureCallback>
 80027de:	2300      	movs	r3, #0
 80027e0:	7723      	strb	r3, [r4, #28]
 80027e2:	6823      	ldr	r3, [r4, #0]
 80027e4:	691a      	ldr	r2, [r3, #16]
 80027e6:	06d2      	lsls	r2, r2, #27
 80027e8:	d510      	bpl.n	800280c <HAL_TIM_IRQHandler+0xa6>
 80027ea:	68da      	ldr	r2, [r3, #12]
 80027ec:	06d0      	lsls	r0, r2, #27
 80027ee:	d50d      	bpl.n	800280c <HAL_TIM_IRQHandler+0xa6>
 80027f0:	f06f 0210 	mvn.w	r2, #16
 80027f4:	611a      	str	r2, [r3, #16]
 80027f6:	2208      	movs	r2, #8
 80027f8:	69db      	ldr	r3, [r3, #28]
 80027fa:	7722      	strb	r2, [r4, #28]
 80027fc:	f413 7f40 	tst.w	r3, #768	; 0x300
 8002800:	4620      	mov	r0, r4
 8002802:	d04b      	beq.n	800289c <HAL_TIM_IRQHandler+0x136>
 8002804:	f7ff ffac 	bl	8002760 <HAL_TIM_IC_CaptureCallback>
 8002808:	2300      	movs	r3, #0
 800280a:	7723      	strb	r3, [r4, #28]
 800280c:	6823      	ldr	r3, [r4, #0]
 800280e:	691a      	ldr	r2, [r3, #16]
 8002810:	07d1      	lsls	r1, r2, #31
 8002812:	d508      	bpl.n	8002826 <HAL_TIM_IRQHandler+0xc0>
 8002814:	68da      	ldr	r2, [r3, #12]
 8002816:	07d2      	lsls	r2, r2, #31
 8002818:	d505      	bpl.n	8002826 <HAL_TIM_IRQHandler+0xc0>
 800281a:	f06f 0201 	mvn.w	r2, #1
 800281e:	4620      	mov	r0, r4
 8002820:	611a      	str	r2, [r3, #16]
 8002822:	f7fe fad7 	bl	8000dd4 <HAL_TIM_PeriodElapsedCallback>
 8002826:	6823      	ldr	r3, [r4, #0]
 8002828:	691a      	ldr	r2, [r3, #16]
 800282a:	0610      	lsls	r0, r2, #24
 800282c:	d508      	bpl.n	8002840 <HAL_TIM_IRQHandler+0xda>
 800282e:	68da      	ldr	r2, [r3, #12]
 8002830:	0611      	lsls	r1, r2, #24
 8002832:	d505      	bpl.n	8002840 <HAL_TIM_IRQHandler+0xda>
 8002834:	f06f 0280 	mvn.w	r2, #128	; 0x80
 8002838:	4620      	mov	r0, r4
 800283a:	611a      	str	r2, [r3, #16]
 800283c:	f000 f959 	bl	8002af2 <HAL_TIMEx_BreakCallback>
 8002840:	6823      	ldr	r3, [r4, #0]
 8002842:	691a      	ldr	r2, [r3, #16]
 8002844:	0652      	lsls	r2, r2, #25
 8002846:	d508      	bpl.n	800285a <HAL_TIM_IRQHandler+0xf4>
 8002848:	68da      	ldr	r2, [r3, #12]
 800284a:	0650      	lsls	r0, r2, #25
 800284c:	d505      	bpl.n	800285a <HAL_TIM_IRQHandler+0xf4>
 800284e:	f06f 0240 	mvn.w	r2, #64	; 0x40
 8002852:	4620      	mov	r0, r4
 8002854:	611a      	str	r2, [r3, #16]
 8002856:	f7ff ff85 	bl	8002764 <HAL_TIM_TriggerCallback>
 800285a:	6823      	ldr	r3, [r4, #0]
 800285c:	691a      	ldr	r2, [r3, #16]
 800285e:	0691      	lsls	r1, r2, #26
 8002860:	d522      	bpl.n	80028a8 <HAL_TIM_IRQHandler+0x142>
 8002862:	68da      	ldr	r2, [r3, #12]
 8002864:	0692      	lsls	r2, r2, #26
 8002866:	d51f      	bpl.n	80028a8 <HAL_TIM_IRQHandler+0x142>
 8002868:	f06f 0220 	mvn.w	r2, #32
 800286c:	4620      	mov	r0, r4
 800286e:	e8bd 4010 	ldmia.w	sp!, {r4, lr}
 8002872:	611a      	str	r2, [r3, #16]
 8002874:	f000 b93c 	b.w	8002af0 <HAL_TIMEx_CommutCallback>
 8002878:	f7ff ff71 	bl	800275e <HAL_TIM_OC_DelayElapsedCallback>
 800287c:	4620      	mov	r0, r4
 800287e:	f7ff ff70 	bl	8002762 <HAL_TIM_PWM_PulseFinishedCallback>
 8002882:	e783      	b.n	800278c <HAL_TIM_IRQHandler+0x26>
 8002884:	f7ff ff6b 	bl	800275e <HAL_TIM_OC_DelayElapsedCallback>
 8002888:	4620      	mov	r0, r4
 800288a:	f7ff ff6a 	bl	8002762 <HAL_TIM_PWM_PulseFinishedCallback>
 800288e:	e792      	b.n	80027b6 <HAL_TIM_IRQHandler+0x50>
 8002890:	f7ff ff65 	bl	800275e <HAL_TIM_OC_DelayElapsedCallback>
 8002894:	4620      	mov	r0, r4
 8002896:	f7ff ff64 	bl	8002762 <HAL_TIM_PWM_PulseFinishedCallback>
 800289a:	e7a0      	b.n	80027de <HAL_TIM_IRQHandler+0x78>
 800289c:	f7ff ff5f 	bl	800275e <HAL_TIM_OC_DelayElapsedCallback>
 80028a0:	4620      	mov	r0, r4
 80028a2:	f7ff ff5e 	bl	8002762 <HAL_TIM_PWM_PulseFinishedCallback>
 80028a6:	e7af      	b.n	8002808 <HAL_TIM_IRQHandler+0xa2>
 80028a8:	bd10      	pop	{r4, pc}
	...

080028ac <TIM_Base_SetConfig>:
 80028ac:	4a24      	ldr	r2, [pc, #144]	; (8002940 <TIM_Base_SetConfig+0x94>)
 80028ae:	6803      	ldr	r3, [r0, #0]
 80028b0:	4290      	cmp	r0, r2
 80028b2:	d012      	beq.n	80028da <TIM_Base_SetConfig+0x2e>
 80028b4:	f502 6200 	add.w	r2, r2, #2048	; 0x800
 80028b8:	4290      	cmp	r0, r2
 80028ba:	d00e      	beq.n	80028da <TIM_Base_SetConfig+0x2e>
 80028bc:	f1b0 4f80 	cmp.w	r0, #1073741824	; 0x40000000
 80028c0:	d00b      	beq.n	80028da <TIM_Base_SetConfig+0x2e>
 80028c2:	f5a2 3298 	sub.w	r2, r2, #77824	; 0x13000
 80028c6:	4290      	cmp	r0, r2
 80028c8:	d007      	beq.n	80028da <TIM_Base_SetConfig+0x2e>
 80028ca:	f502 6280 	add.w	r2, r2, #1024	; 0x400
 80028ce:	4290      	cmp	r0, r2
 80028d0:	d003      	beq.n	80028da <TIM_Base_SetConfig+0x2e>
 80028d2:	f502 6280 	add.w	r2, r2, #1024	; 0x400
 80028d6:	4290      	cmp	r0, r2
 80028d8:	d11d      	bne.n	8002916 <TIM_Base_SetConfig+0x6a>
 80028da:	684a      	ldr	r2, [r1, #4]
 80028dc:	f023 0370 	bic.w	r3, r3, #112	; 0x70
 80028e0:	4313      	orrs	r3, r2
 80028e2:	4a17      	ldr	r2, [pc, #92]	; (8002940 <TIM_Base_SetConfig+0x94>)
 80028e4:	4290      	cmp	r0, r2
 80028e6:	d012      	beq.n	800290e <TIM_Base_SetConfig+0x62>
 80028e8:	f502 6200 	add.w	r2, r2, #2048	; 0x800
 80028ec:	4290      	cmp	r0, r2
 80028ee:	d00e      	beq.n	800290e <TIM_Base_SetConfig+0x62>
 80028f0:	f1b0 4f80 	cmp.w	r0, #1073741824	; 0x40000000
 80028f4:	d00b      	beq.n	800290e <TIM_Base_SetConfig+0x62>
 80028f6:	f5a2 3298 	sub.w	r2, r2, #77824	; 0x13000
 80028fa:	4290      	cmp	r0, r2
 80028fc:	d007      	beq.n	800290e <TIM_Base_SetConfig+0x62>
 80028fe:	f502 6280 	add.w	r2, r2, #1024	; 0x400
 8002902:	4290      	cmp	r0, r2
 8002904:	d003      	beq.n	800290e <TIM_Base_SetConfig+0x62>
 8002906:	f502 6280 	add.w	r2, r2, #1024	; 0x400
 800290a:	4290      	cmp	r0, r2
 800290c:	d103      	bne.n	8002916 <TIM_Base_SetConfig+0x6a>
 800290e:	68ca      	ldr	r2, [r1, #12]
 8002910:	f423 7340 	bic.w	r3, r3, #768	; 0x300
 8002914:	4313      	orrs	r3, r2
 8002916:	694a      	ldr	r2, [r1, #20]
 8002918:	f023 0380 	bic.w	r3, r3, #128	; 0x80
 800291c:	4313      	orrs	r3, r2
 800291e:	6003      	str	r3, [r0, #0]
 8002920:	688b      	ldr	r3, [r1, #8]
 8002922:	62c3      	str	r3, [r0, #44]	; 0x2c
 8002924:	680b      	ldr	r3, [r1, #0]
 8002926:	6283      	str	r3, [r0, #40]	; 0x28
 8002928:	4b05      	ldr	r3, [pc, #20]	; (8002940 <TIM_Base_SetConfig+0x94>)
 800292a:	4298      	cmp	r0, r3
 800292c:	d003      	beq.n	8002936 <TIM_Base_SetConfig+0x8a>
 800292e:	f503 6300 	add.w	r3, r3, #2048	; 0x800
 8002932:	4298      	cmp	r0, r3
 8002934:	d101      	bne.n	800293a <TIM_Base_SetConfig+0x8e>
 8002936:	690b      	ldr	r3, [r1, #16]
 8002938:	6303      	str	r3, [r0, #48]	; 0x30
 800293a:	2301      	movs	r3, #1
 800293c:	6143      	str	r3, [r0, #20]
 800293e:	4770      	bx	lr
 8002940:	40012c00 	.word	0x40012c00

08002944 <HAL_TIM_Base_Init>:
 8002944:	b510      	push	{r4, lr}
 8002946:	4604      	mov	r4, r0
 8002948:	b1a0      	cbz	r0, 8002974 <HAL_TIM_Base_Init+0x30>
 800294a:	f890 303d 	ldrb.w	r3, [r0, #61]	; 0x3d
 800294e:	f003 02ff 	and.w	r2, r3, #255	; 0xff
 8002952:	b91b      	cbnz	r3, 800295c <HAL_TIM_Base_Init+0x18>
 8002954:	f880 203c 	strb.w	r2, [r0, #60]	; 0x3c
 8002958:	f7fe feaa 	bl	80016b0 <HAL_TIM_Base_MspInit>
 800295c:	2302      	movs	r3, #2
 800295e:	6820      	ldr	r0, [r4, #0]
 8002960:	f884 303d 	strb.w	r3, [r4, #61]	; 0x3d
 8002964:	1d21      	adds	r1, r4, #4
 8002966:	f7ff ffa1 	bl	80028ac <TIM_Base_SetConfig>
 800296a:	2301      	movs	r3, #1
 800296c:	2000      	movs	r0, #0
 800296e:	f884 303d 	strb.w	r3, [r4, #61]	; 0x3d
 8002972:	bd10      	pop	{r4, pc}
 8002974:	2001      	movs	r0, #1
 8002976:	e7fc      	b.n	8002972 <HAL_TIM_Base_Init+0x2e>

08002978 <TIM_ETR_SetConfig>:
 8002978:	b510      	push	{r4, lr}
 800297a:	6884      	ldr	r4, [r0, #8]
 800297c:	430a      	orrs	r2, r1
 800297e:	f424 447f 	bic.w	r4, r4, #65280	; 0xff00
 8002982:	ea42 2303 	orr.w	r3, r2, r3, lsl #8
 8002986:	4323      	orrs	r3, r4
 8002988:	6083      	str	r3, [r0, #8]
 800298a:	bd10      	pop	{r4, pc}

0800298c <HAL_TIM_ConfigClockSource>:
 800298c:	f890 303c 	ldrb.w	r3, [r0, #60]	; 0x3c
 8002990:	b570      	push	{r4, r5, r6, lr}
 8002992:	2b01      	cmp	r3, #1
 8002994:	4604      	mov	r4, r0
 8002996:	f04f 0002 	mov.w	r0, #2
 800299a:	d019      	beq.n	80029d0 <HAL_TIM_ConfigClockSource+0x44>
 800299c:	2301      	movs	r3, #1
 800299e:	f884 003d 	strb.w	r0, [r4, #61]	; 0x3d
 80029a2:	6820      	ldr	r0, [r4, #0]
 80029a4:	f884 303c 	strb.w	r3, [r4, #60]	; 0x3c
 80029a8:	6883      	ldr	r3, [r0, #8]
 80029aa:	f423 437f 	bic.w	r3, r3, #65280	; 0xff00
 80029ae:	f023 0377 	bic.w	r3, r3, #119	; 0x77
 80029b2:	6083      	str	r3, [r0, #8]
 80029b4:	680b      	ldr	r3, [r1, #0]
 80029b6:	2b40      	cmp	r3, #64	; 0x40
 80029b8:	d065      	beq.n	8002a86 <HAL_TIM_ConfigClockSource+0xfa>
 80029ba:	d815      	bhi.n	80029e8 <HAL_TIM_ConfigClockSource+0x5c>
 80029bc:	2b10      	cmp	r3, #16
 80029be:	d00c      	beq.n	80029da <HAL_TIM_ConfigClockSource+0x4e>
 80029c0:	d807      	bhi.n	80029d2 <HAL_TIM_ConfigClockSource+0x46>
 80029c2:	b153      	cbz	r3, 80029da <HAL_TIM_ConfigClockSource+0x4e>
 80029c4:	2301      	movs	r3, #1
 80029c6:	2000      	movs	r0, #0
 80029c8:	f884 303d 	strb.w	r3, [r4, #61]	; 0x3d
 80029cc:	f884 003c 	strb.w	r0, [r4, #60]	; 0x3c
 80029d0:	bd70      	pop	{r4, r5, r6, pc}
 80029d2:	2b20      	cmp	r3, #32
 80029d4:	d001      	beq.n	80029da <HAL_TIM_ConfigClockSource+0x4e>
 80029d6:	2b30      	cmp	r3, #48	; 0x30
 80029d8:	d1f4      	bne.n	80029c4 <HAL_TIM_ConfigClockSource+0x38>
 80029da:	6882      	ldr	r2, [r0, #8]
 80029dc:	f043 0307 	orr.w	r3, r3, #7
 80029e0:	f022 0270 	bic.w	r2, r2, #112	; 0x70
 80029e4:	4313      	orrs	r3, r2
 80029e6:	e01a      	b.n	8002a1e <HAL_TIM_ConfigClockSource+0x92>
 80029e8:	2b60      	cmp	r3, #96	; 0x60
 80029ea:	d034      	beq.n	8002a56 <HAL_TIM_ConfigClockSource+0xca>
 80029ec:	d819      	bhi.n	8002a22 <HAL_TIM_ConfigClockSource+0x96>
 80029ee:	2b50      	cmp	r3, #80	; 0x50
 80029f0:	d1e8      	bne.n	80029c4 <HAL_TIM_ConfigClockSource+0x38>
 80029f2:	684a      	ldr	r2, [r1, #4]
 80029f4:	68ce      	ldr	r6, [r1, #12]
 80029f6:	6a01      	ldr	r1, [r0, #32]
 80029f8:	6a05      	ldr	r5, [r0, #32]
 80029fa:	f021 010a 	bic.w	r1, r1, #10
 80029fe:	f025 0501 	bic.w	r5, r5, #1
 8002a02:	6205      	str	r5, [r0, #32]
 8002a04:	6983      	ldr	r3, [r0, #24]
 8002a06:	430a      	orrs	r2, r1
 8002a08:	f023 03f0 	bic.w	r3, r3, #240	; 0xf0
 8002a0c:	ea43 1306 	orr.w	r3, r3, r6, lsl #4
 8002a10:	6183      	str	r3, [r0, #24]
 8002a12:	6202      	str	r2, [r0, #32]
 8002a14:	6883      	ldr	r3, [r0, #8]
 8002a16:	f023 0370 	bic.w	r3, r3, #112	; 0x70
 8002a1a:	f043 0357 	orr.w	r3, r3, #87	; 0x57
 8002a1e:	6083      	str	r3, [r0, #8]
 8002a20:	e7d0      	b.n	80029c4 <HAL_TIM_ConfigClockSource+0x38>
 8002a22:	2b70      	cmp	r3, #112	; 0x70
 8002a24:	d00c      	beq.n	8002a40 <HAL_TIM_ConfigClockSource+0xb4>
 8002a26:	f5b3 5f00 	cmp.w	r3, #8192	; 0x2000
 8002a2a:	d1cb      	bne.n	80029c4 <HAL_TIM_ConfigClockSource+0x38>
 8002a2c:	68cb      	ldr	r3, [r1, #12]
 8002a2e:	e9d1 2101 	ldrd	r2, r1, [r1, #4]
 8002a32:	f7ff ffa1 	bl	8002978 <TIM_ETR_SetConfig>
 8002a36:	6822      	ldr	r2, [r4, #0]
 8002a38:	6893      	ldr	r3, [r2, #8]
 8002a3a:	f443 4380 	orr.w	r3, r3, #16384	; 0x4000
 8002a3e:	e008      	b.n	8002a52 <HAL_TIM_ConfigClockSource+0xc6>
 8002a40:	68cb      	ldr	r3, [r1, #12]
 8002a42:	e9d1 2101 	ldrd	r2, r1, [r1, #4]
 8002a46:	f7ff ff97 	bl	8002978 <TIM_ETR_SetConfig>
 8002a4a:	6822      	ldr	r2, [r4, #0]
 8002a4c:	6893      	ldr	r3, [r2, #8]
 8002a4e:	f043 0377 	orr.w	r3, r3, #119	; 0x77
 8002a52:	6093      	str	r3, [r2, #8]
 8002a54:	e7b6      	b.n	80029c4 <HAL_TIM_ConfigClockSource+0x38>
 8002a56:	684d      	ldr	r5, [r1, #4]
 8002a58:	68ce      	ldr	r6, [r1, #12]
 8002a5a:	6a01      	ldr	r1, [r0, #32]
 8002a5c:	f021 0110 	bic.w	r1, r1, #16
 8002a60:	6201      	str	r1, [r0, #32]
 8002a62:	6982      	ldr	r2, [r0, #24]
 8002a64:	6a03      	ldr	r3, [r0, #32]
 8002a66:	f422 4270 	bic.w	r2, r2, #61440	; 0xf000
 8002a6a:	f023 03a0 	bic.w	r3, r3, #160	; 0xa0
 8002a6e:	ea43 1305 	orr.w	r3, r3, r5, lsl #4
 8002a72:	ea42 3206 	orr.w	r2, r2, r6, lsl #12
 8002a76:	6182      	str	r2, [r0, #24]
 8002a78:	6203      	str	r3, [r0, #32]
 8002a7a:	6883      	ldr	r3, [r0, #8]
 8002a7c:	f023 0370 	bic.w	r3, r3, #112	; 0x70
 8002a80:	f043 0367 	orr.w	r3, r3, #103	; 0x67
 8002a84:	e7cb      	b.n	8002a1e <HAL_TIM_ConfigClockSource+0x92>
 8002a86:	684a      	ldr	r2, [r1, #4]
 8002a88:	68ce      	ldr	r6, [r1, #12]
 8002a8a:	6a01      	ldr	r1, [r0, #32]
 8002a8c:	6a05      	ldr	r5, [r0, #32]
 8002a8e:	f021 010a 	bic.w	r1, r1, #10
 8002a92:	f025 0501 	bic.w	r5, r5, #1
 8002a96:	6205      	str	r5, [r0, #32]
 8002a98:	6983      	ldr	r3, [r0, #24]
 8002a9a:	430a      	orrs	r2, r1
 8002a9c:	f023 03f0 	bic.w	r3, r3, #240	; 0xf0
 8002aa0:	ea43 1306 	orr.w	r3, r3, r6, lsl #4
 8002aa4:	6183      	str	r3, [r0, #24]
 8002aa6:	6202      	str	r2, [r0, #32]
 8002aa8:	6883      	ldr	r3, [r0, #8]
 8002aaa:	f023 0370 	bic.w	r3, r3, #112	; 0x70
 8002aae:	f043 0347 	orr.w	r3, r3, #71	; 0x47
 8002ab2:	e7b4      	b.n	8002a1e <HAL_TIM_ConfigClockSource+0x92>

08002ab4 <HAL_TIMEx_MasterConfigSynchronization>:
 8002ab4:	f890 303c 	ldrb.w	r3, [r0, #60]	; 0x3c
 8002ab8:	b530      	push	{r4, r5, lr}
 8002aba:	2b01      	cmp	r3, #1
 8002abc:	f04f 0302 	mov.w	r3, #2
 8002ac0:	d014      	beq.n	8002aec <HAL_TIMEx_MasterConfigSynchronization+0x38>
 8002ac2:	6804      	ldr	r4, [r0, #0]
 8002ac4:	f880 303d 	strb.w	r3, [r0, #61]	; 0x3d
 8002ac8:	6862      	ldr	r2, [r4, #4]
 8002aca:	68a3      	ldr	r3, [r4, #8]
 8002acc:	680d      	ldr	r5, [r1, #0]
 8002ace:	6849      	ldr	r1, [r1, #4]
 8002ad0:	f022 0270 	bic.w	r2, r2, #112	; 0x70
 8002ad4:	f023 0380 	bic.w	r3, r3, #128	; 0x80
 8002ad8:	430b      	orrs	r3, r1
 8002ada:	432a      	orrs	r2, r5
 8002adc:	6062      	str	r2, [r4, #4]
 8002ade:	60a3      	str	r3, [r4, #8]
 8002ae0:	2301      	movs	r3, #1
 8002ae2:	f880 303d 	strb.w	r3, [r0, #61]	; 0x3d
 8002ae6:	2300      	movs	r3, #0
 8002ae8:	f880 303c 	strb.w	r3, [r0, #60]	; 0x3c
 8002aec:	4618      	mov	r0, r3
 8002aee:	bd30      	pop	{r4, r5, pc}

08002af0 <HAL_TIMEx_CommutCallback>:
 8002af0:	4770      	bx	lr

08002af2 <HAL_TIMEx_BreakCallback>:
 8002af2:	4770      	bx	lr

08002af4 <UART_EndRxTransfer>:
 8002af4:	6803      	ldr	r3, [r0, #0]
 8002af6:	68da      	ldr	r2, [r3, #12]
 8002af8:	f422 7290 	bic.w	r2, r2, #288	; 0x120
 8002afc:	60da      	str	r2, [r3, #12]
 8002afe:	695a      	ldr	r2, [r3, #20]
 8002b00:	f022 0201 	bic.w	r2, r2, #1
 8002b04:	615a      	str	r2, [r3, #20]
 8002b06:	2320      	movs	r3, #32
 8002b08:	f880 303a 	strb.w	r3, [r0, #58]	; 0x3a
 8002b0c:	4770      	bx	lr
	...

08002b10 <UART_SetConfig>:
 8002b10:	b538      	push	{r3, r4, r5, lr}
 8002b12:	4605      	mov	r5, r0
 8002b14:	6803      	ldr	r3, [r0, #0]
 8002b16:	68c1      	ldr	r1, [r0, #12]
 8002b18:	691a      	ldr	r2, [r3, #16]
 8002b1a:	2419      	movs	r4, #25
 8002b1c:	f422 5240 	bic.w	r2, r2, #12288	; 0x3000
 8002b20:	430a      	orrs	r2, r1
 8002b22:	611a      	str	r2, [r3, #16]
 8002b24:	6882      	ldr	r2, [r0, #8]
 8002b26:	6900      	ldr	r0, [r0, #16]
 8002b28:	68d9      	ldr	r1, [r3, #12]
 8002b2a:	4302      	orrs	r2, r0
 8002b2c:	6968      	ldr	r0, [r5, #20]
 8002b2e:	f421 51b0 	bic.w	r1, r1, #5632	; 0x1600
 8002b32:	f021 010c 	bic.w	r1, r1, #12
 8002b36:	4302      	orrs	r2, r0
 8002b38:	430a      	orrs	r2, r1
 8002b3a:	60da      	str	r2, [r3, #12]
 8002b3c:	695a      	ldr	r2, [r3, #20]
 8002b3e:	69a9      	ldr	r1, [r5, #24]
 8002b40:	f422 7240 	bic.w	r2, r2, #768	; 0x300
 8002b44:	430a      	orrs	r2, r1
 8002b46:	615a      	str	r2, [r3, #20]
 8002b48:	4a0d      	ldr	r2, [pc, #52]	; (8002b80 <UART_SetConfig+0x70>)
 8002b4a:	4293      	cmp	r3, r2
 8002b4c:	d114      	bne.n	8002b78 <UART_SetConfig+0x68>
 8002b4e:	f7ff fd59 	bl	8002604 <HAL_RCC_GetPCLK2Freq>
 8002b52:	4360      	muls	r0, r4
 8002b54:	686c      	ldr	r4, [r5, #4]
 8002b56:	2264      	movs	r2, #100	; 0x64
 8002b58:	00a4      	lsls	r4, r4, #2
 8002b5a:	fbb0 f0f4 	udiv	r0, r0, r4
 8002b5e:	fbb0 f1f2 	udiv	r1, r0, r2
 8002b62:	fb02 0311 	mls	r3, r2, r1, r0
 8002b66:	011b      	lsls	r3, r3, #4
 8002b68:	3332      	adds	r3, #50	; 0x32
 8002b6a:	fbb3 f3f2 	udiv	r3, r3, r2
 8002b6e:	682c      	ldr	r4, [r5, #0]
 8002b70:	eb03 1301 	add.w	r3, r3, r1, lsl #4
 8002b74:	60a3      	str	r3, [r4, #8]
 8002b76:	bd38      	pop	{r3, r4, r5, pc}
 8002b78:	f7ff fd34 	bl	80025e4 <HAL_RCC_GetPCLK1Freq>
 8002b7c:	e7e9      	b.n	8002b52 <UART_SetConfig+0x42>
 8002b7e:	bf00      	nop
 8002b80:	40013800 	.word	0x40013800

08002b84 <HAL_UART_Init>:
 8002b84:	b510      	push	{r4, lr}
 8002b86:	4604      	mov	r4, r0
 8002b88:	b340      	cbz	r0, 8002bdc <HAL_UART_Init+0x58>
 8002b8a:	f890 3039 	ldrb.w	r3, [r0, #57]	; 0x39
 8002b8e:	f003 02ff 	and.w	r2, r3, #255	; 0xff
 8002b92:	b91b      	cbnz	r3, 8002b9c <HAL_UART_Init+0x18>
 8002b94:	f880 2038 	strb.w	r2, [r0, #56]	; 0x38
 8002b98:	f7fe fe1e 	bl	80017d8 <HAL_UART_MspInit>
 8002b9c:	2324      	movs	r3, #36	; 0x24
 8002b9e:	6822      	ldr	r2, [r4, #0]
 8002ba0:	f884 3039 	strb.w	r3, [r4, #57]	; 0x39
 8002ba4:	68d3      	ldr	r3, [r2, #12]
 8002ba6:	4620      	mov	r0, r4
 8002ba8:	f423 5300 	bic.w	r3, r3, #8192	; 0x2000
 8002bac:	60d3      	str	r3, [r2, #12]
 8002bae:	f7ff ffaf 	bl	8002b10 <UART_SetConfig>
 8002bb2:	6823      	ldr	r3, [r4, #0]
 8002bb4:	2000      	movs	r0, #0
 8002bb6:	691a      	ldr	r2, [r3, #16]
 8002bb8:	f422 4290 	bic.w	r2, r2, #18432	; 0x4800
 8002bbc:	611a      	str	r2, [r3, #16]
 8002bbe:	695a      	ldr	r2, [r3, #20]
 8002bc0:	f022 022a 	bic.w	r2, r2, #42	; 0x2a
 8002bc4:	615a      	str	r2, [r3, #20]
 8002bc6:	68da      	ldr	r2, [r3, #12]
 8002bc8:	f442 5200 	orr.w	r2, r2, #8192	; 0x2000
 8002bcc:	60da      	str	r2, [r3, #12]
 8002bce:	2320      	movs	r3, #32
 8002bd0:	63e0      	str	r0, [r4, #60]	; 0x3c
 8002bd2:	f884 3039 	strb.w	r3, [r4, #57]	; 0x39
 8002bd6:	f884 303a 	strb.w	r3, [r4, #58]	; 0x3a
 8002bda:	bd10      	pop	{r4, pc}
 8002bdc:	2001      	movs	r0, #1
 8002bde:	e7fc      	b.n	8002bda <HAL_UART_Init+0x56>

08002be0 <HAL_UART_Receive_IT>:
 8002be0:	f890 303a 	ldrb.w	r3, [r0, #58]	; 0x3a
 8002be4:	2b20      	cmp	r3, #32
 8002be6:	d120      	bne.n	8002c2a <HAL_UART_Receive_IT+0x4a>
 8002be8:	b1e9      	cbz	r1, 8002c26 <HAL_UART_Receive_IT+0x46>
 8002bea:	b1e2      	cbz	r2, 8002c26 <HAL_UART_Receive_IT+0x46>
 8002bec:	f890 3038 	ldrb.w	r3, [r0, #56]	; 0x38
 8002bf0:	2b01      	cmp	r3, #1
 8002bf2:	d01a      	beq.n	8002c2a <HAL_UART_Receive_IT+0x4a>
 8002bf4:	85c2      	strh	r2, [r0, #46]	; 0x2e
 8002bf6:	8582      	strh	r2, [r0, #44]	; 0x2c
 8002bf8:	2300      	movs	r3, #0
 8002bfa:	2222      	movs	r2, #34	; 0x22
 8002bfc:	63c3      	str	r3, [r0, #60]	; 0x3c
 8002bfe:	f880 203a 	strb.w	r2, [r0, #58]	; 0x3a
 8002c02:	6802      	ldr	r2, [r0, #0]
 8002c04:	6281      	str	r1, [r0, #40]	; 0x28
 8002c06:	68d1      	ldr	r1, [r2, #12]
 8002c08:	f880 3038 	strb.w	r3, [r0, #56]	; 0x38
 8002c0c:	f441 7180 	orr.w	r1, r1, #256	; 0x100
 8002c10:	60d1      	str	r1, [r2, #12]
 8002c12:	6951      	ldr	r1, [r2, #20]
 8002c14:	4618      	mov	r0, r3
 8002c16:	f041 0101 	orr.w	r1, r1, #1
 8002c1a:	6151      	str	r1, [r2, #20]
 8002c1c:	68d1      	ldr	r1, [r2, #12]
 8002c1e:	f041 0120 	orr.w	r1, r1, #32
 8002c22:	60d1      	str	r1, [r2, #12]
 8002c24:	4770      	bx	lr
 8002c26:	2001      	movs	r0, #1
 8002c28:	4770      	bx	lr
 8002c2a:	2002      	movs	r0, #2
 8002c2c:	4770      	bx	lr

08002c2e <HAL_UART_TxCpltCallback>:
 8002c2e:	4770      	bx	lr

08002c30 <UART_Receive_IT>:
 8002c30:	f890 303a 	ldrb.w	r3, [r0, #58]	; 0x3a
 8002c34:	b510      	push	{r4, lr}
 8002c36:	2b22      	cmp	r3, #34	; 0x22
 8002c38:	d133      	bne.n	8002ca2 <UART_Receive_IT+0x72>
 8002c3a:	6881      	ldr	r1, [r0, #8]
 8002c3c:	6904      	ldr	r4, [r0, #16]
 8002c3e:	f5b1 5f80 	cmp.w	r1, #4096	; 0x1000
 8002c42:	6a83      	ldr	r3, [r0, #40]	; 0x28
 8002c44:	6802      	ldr	r2, [r0, #0]
 8002c46:	d123      	bne.n	8002c90 <UART_Receive_IT+0x60>
 8002c48:	6852      	ldr	r2, [r2, #4]
 8002c4a:	b9ec      	cbnz	r4, 8002c88 <UART_Receive_IT+0x58>
 8002c4c:	f3c2 0208 	ubfx	r2, r2, #0, #9
 8002c50:	f823 2b02 	strh.w	r2, [r3], #2
 8002c54:	6283      	str	r3, [r0, #40]	; 0x28
 8002c56:	8dc4      	ldrh	r4, [r0, #46]	; 0x2e
 8002c58:	3c01      	subs	r4, #1
 8002c5a:	b2a4      	uxth	r4, r4
 8002c5c:	85c4      	strh	r4, [r0, #46]	; 0x2e
 8002c5e:	b98c      	cbnz	r4, 8002c84 <UART_Receive_IT+0x54>
 8002c60:	6803      	ldr	r3, [r0, #0]
 8002c62:	68da      	ldr	r2, [r3, #12]
 8002c64:	f022 0220 	bic.w	r2, r2, #32
 8002c68:	60da      	str	r2, [r3, #12]
 8002c6a:	68da      	ldr	r2, [r3, #12]
 8002c6c:	f422 7280 	bic.w	r2, r2, #256	; 0x100
 8002c70:	60da      	str	r2, [r3, #12]
 8002c72:	695a      	ldr	r2, [r3, #20]
 8002c74:	f022 0201 	bic.w	r2, r2, #1
 8002c78:	615a      	str	r2, [r3, #20]
 8002c7a:	2320      	movs	r3, #32
 8002c7c:	f880 303a 	strb.w	r3, [r0, #58]	; 0x3a
 8002c80:	f7fe f9fe 	bl	8001080 <HAL_UART_RxCpltCallback>
 8002c84:	2000      	movs	r0, #0
 8002c86:	e00d      	b.n	8002ca4 <UART_Receive_IT+0x74>
 8002c88:	b2d2      	uxtb	r2, r2
 8002c8a:	f823 2b01 	strh.w	r2, [r3], #1
 8002c8e:	e7e1      	b.n	8002c54 <UART_Receive_IT+0x24>
 8002c90:	1c59      	adds	r1, r3, #1
 8002c92:	6852      	ldr	r2, [r2, #4]
 8002c94:	6281      	str	r1, [r0, #40]	; 0x28
 8002c96:	b90c      	cbnz	r4, 8002c9c <UART_Receive_IT+0x6c>
 8002c98:	701a      	strb	r2, [r3, #0]
 8002c9a:	e7dc      	b.n	8002c56 <UART_Receive_IT+0x26>
 8002c9c:	f002 027f 	and.w	r2, r2, #127	; 0x7f
 8002ca0:	e7fa      	b.n	8002c98 <UART_Receive_IT+0x68>
 8002ca2:	2002      	movs	r0, #2
 8002ca4:	bd10      	pop	{r4, pc}

08002ca6 <HAL_UART_ErrorCallback>:
 8002ca6:	4770      	bx	lr

08002ca8 <HAL_UART_IRQHandler>:
 8002ca8:	6803      	ldr	r3, [r0, #0]
 8002caa:	b570      	push	{r4, r5, r6, lr}
 8002cac:	681a      	ldr	r2, [r3, #0]
 8002cae:	4604      	mov	r4, r0
 8002cb0:	0716      	lsls	r6, r2, #28
 8002cb2:	68d9      	ldr	r1, [r3, #12]
 8002cb4:	695d      	ldr	r5, [r3, #20]
 8002cb6:	d107      	bne.n	8002cc8 <HAL_UART_IRQHandler+0x20>
 8002cb8:	0696      	lsls	r6, r2, #26
 8002cba:	d558      	bpl.n	8002d6e <HAL_UART_IRQHandler+0xc6>
 8002cbc:	068d      	lsls	r5, r1, #26
 8002cbe:	d556      	bpl.n	8002d6e <HAL_UART_IRQHandler+0xc6>
 8002cc0:	e8bd 4070 	ldmia.w	sp!, {r4, r5, r6, lr}
 8002cc4:	f7ff bfb4 	b.w	8002c30 <UART_Receive_IT>
 8002cc8:	f015 0501 	ands.w	r5, r5, #1
 8002ccc:	d102      	bne.n	8002cd4 <HAL_UART_IRQHandler+0x2c>
 8002cce:	f411 7f90 	tst.w	r1, #288	; 0x120
 8002cd2:	d04c      	beq.n	8002d6e <HAL_UART_IRQHandler+0xc6>
 8002cd4:	07d3      	lsls	r3, r2, #31
 8002cd6:	d505      	bpl.n	8002ce4 <HAL_UART_IRQHandler+0x3c>
 8002cd8:	05ce      	lsls	r6, r1, #23
 8002cda:	bf42      	ittt	mi
 8002cdc:	6be3      	ldrmi	r3, [r4, #60]	; 0x3c
 8002cde:	f043 0301 	orrmi.w	r3, r3, #1
 8002ce2:	63e3      	strmi	r3, [r4, #60]	; 0x3c
 8002ce4:	0750      	lsls	r0, r2, #29
 8002ce6:	d504      	bpl.n	8002cf2 <HAL_UART_IRQHandler+0x4a>
 8002ce8:	b11d      	cbz	r5, 8002cf2 <HAL_UART_IRQHandler+0x4a>
 8002cea:	6be3      	ldr	r3, [r4, #60]	; 0x3c
 8002cec:	f043 0302 	orr.w	r3, r3, #2
 8002cf0:	63e3      	str	r3, [r4, #60]	; 0x3c
 8002cf2:	0793      	lsls	r3, r2, #30
 8002cf4:	d504      	bpl.n	8002d00 <HAL_UART_IRQHandler+0x58>
 8002cf6:	b11d      	cbz	r5, 8002d00 <HAL_UART_IRQHandler+0x58>
 8002cf8:	6be3      	ldr	r3, [r4, #60]	; 0x3c
 8002cfa:	f043 0304 	orr.w	r3, r3, #4
 8002cfe:	63e3      	str	r3, [r4, #60]	; 0x3c
 8002d00:	0716      	lsls	r6, r2, #28
 8002d02:	d504      	bpl.n	8002d0e <HAL_UART_IRQHandler+0x66>
 8002d04:	b11d      	cbz	r5, 8002d0e <HAL_UART_IRQHandler+0x66>
 8002d06:	6be3      	ldr	r3, [r4, #60]	; 0x3c
 8002d08:	f043 0308 	orr.w	r3, r3, #8
 8002d0c:	63e3      	str	r3, [r4, #60]	; 0x3c
 8002d0e:	6be3      	ldr	r3, [r4, #60]	; 0x3c
 8002d10:	b343      	cbz	r3, 8002d64 <HAL_UART_IRQHandler+0xbc>
 8002d12:	0695      	lsls	r5, r2, #26
 8002d14:	d504      	bpl.n	8002d20 <HAL_UART_IRQHandler+0x78>
 8002d16:	0688      	lsls	r0, r1, #26
 8002d18:	d502      	bpl.n	8002d20 <HAL_UART_IRQHandler+0x78>
 8002d1a:	4620      	mov	r0, r4
 8002d1c:	f7ff ff88 	bl	8002c30 <UART_Receive_IT>
 8002d20:	6823      	ldr	r3, [r4, #0]
 8002d22:	4620      	mov	r0, r4
 8002d24:	695d      	ldr	r5, [r3, #20]
 8002d26:	6be2      	ldr	r2, [r4, #60]	; 0x3c
 8002d28:	0711      	lsls	r1, r2, #28
 8002d2a:	d402      	bmi.n	8002d32 <HAL_UART_IRQHandler+0x8a>
 8002d2c:	f015 0540 	ands.w	r5, r5, #64	; 0x40
 8002d30:	d019      	beq.n	8002d66 <HAL_UART_IRQHandler+0xbe>
 8002d32:	f7ff fedf 	bl	8002af4 <UART_EndRxTransfer>
 8002d36:	6823      	ldr	r3, [r4, #0]
 8002d38:	695a      	ldr	r2, [r3, #20]
 8002d3a:	0652      	lsls	r2, r2, #25
 8002d3c:	d50f      	bpl.n	8002d5e <HAL_UART_IRQHandler+0xb6>
 8002d3e:	695a      	ldr	r2, [r3, #20]
 8002d40:	6b60      	ldr	r0, [r4, #52]	; 0x34
 8002d42:	f022 0240 	bic.w	r2, r2, #64	; 0x40
 8002d46:	615a      	str	r2, [r3, #20]
 8002d48:	b148      	cbz	r0, 8002d5e <HAL_UART_IRQHandler+0xb6>
 8002d4a:	4b26      	ldr	r3, [pc, #152]	; (8002de4 <HAL_UART_IRQHandler+0x13c>)
 8002d4c:	6343      	str	r3, [r0, #52]	; 0x34
 8002d4e:	f7fe ffc1 	bl	8001cd4 <HAL_DMA_Abort_IT>
 8002d52:	b138      	cbz	r0, 8002d64 <HAL_UART_IRQHandler+0xbc>
 8002d54:	6b60      	ldr	r0, [r4, #52]	; 0x34
 8002d56:	e8bd 4070 	ldmia.w	sp!, {r4, r5, r6, lr}
 8002d5a:	6b43      	ldr	r3, [r0, #52]	; 0x34
 8002d5c:	4718      	bx	r3
 8002d5e:	4620      	mov	r0, r4
 8002d60:	f7ff ffa1 	bl	8002ca6 <HAL_UART_ErrorCallback>
 8002d64:	bd70      	pop	{r4, r5, r6, pc}
 8002d66:	f7ff ff9e 	bl	8002ca6 <HAL_UART_ErrorCallback>
 8002d6a:	63e5      	str	r5, [r4, #60]	; 0x3c
 8002d6c:	e7fa      	b.n	8002d64 <HAL_UART_IRQHandler+0xbc>
 8002d6e:	0616      	lsls	r6, r2, #24
 8002d70:	d528      	bpl.n	8002dc4 <HAL_UART_IRQHandler+0x11c>
 8002d72:	060d      	lsls	r5, r1, #24
 8002d74:	d526      	bpl.n	8002dc4 <HAL_UART_IRQHandler+0x11c>
 8002d76:	f894 2039 	ldrb.w	r2, [r4, #57]	; 0x39
 8002d7a:	2a21      	cmp	r2, #33	; 0x21
 8002d7c:	d1f2      	bne.n	8002d64 <HAL_UART_IRQHandler+0xbc>
 8002d7e:	68a1      	ldr	r1, [r4, #8]
 8002d80:	6a22      	ldr	r2, [r4, #32]
 8002d82:	f5b1 5f80 	cmp.w	r1, #4096	; 0x1000
 8002d86:	d118      	bne.n	8002dba <HAL_UART_IRQHandler+0x112>
 8002d88:	8811      	ldrh	r1, [r2, #0]
 8002d8a:	f3c1 0108 	ubfx	r1, r1, #0, #9
 8002d8e:	6059      	str	r1, [r3, #4]
 8002d90:	6921      	ldr	r1, [r4, #16]
 8002d92:	b981      	cbnz	r1, 8002db6 <HAL_UART_IRQHandler+0x10e>
 8002d94:	3202      	adds	r2, #2
 8002d96:	6222      	str	r2, [r4, #32]
 8002d98:	8ce2      	ldrh	r2, [r4, #38]	; 0x26
 8002d9a:	3a01      	subs	r2, #1
 8002d9c:	b292      	uxth	r2, r2
 8002d9e:	84e2      	strh	r2, [r4, #38]	; 0x26
 8002da0:	2a00      	cmp	r2, #0
 8002da2:	d1df      	bne.n	8002d64 <HAL_UART_IRQHandler+0xbc>
 8002da4:	68da      	ldr	r2, [r3, #12]
 8002da6:	f022 0280 	bic.w	r2, r2, #128	; 0x80
 8002daa:	60da      	str	r2, [r3, #12]
 8002dac:	68da      	ldr	r2, [r3, #12]
 8002dae:	f042 0240 	orr.w	r2, r2, #64	; 0x40
 8002db2:	60da      	str	r2, [r3, #12]
 8002db4:	e7d6      	b.n	8002d64 <HAL_UART_IRQHandler+0xbc>
 8002db6:	3201      	adds	r2, #1
 8002db8:	e7ed      	b.n	8002d96 <HAL_UART_IRQHandler+0xee>
 8002dba:	1c51      	adds	r1, r2, #1
 8002dbc:	6221      	str	r1, [r4, #32]
 8002dbe:	7812      	ldrb	r2, [r2, #0]
 8002dc0:	605a      	str	r2, [r3, #4]
 8002dc2:	e7e9      	b.n	8002d98 <HAL_UART_IRQHandler+0xf0>
 8002dc4:	0650      	lsls	r0, r2, #25
 8002dc6:	d5cd      	bpl.n	8002d64 <HAL_UART_IRQHandler+0xbc>
 8002dc8:	064a      	lsls	r2, r1, #25
 8002dca:	d5cb      	bpl.n	8002d64 <HAL_UART_IRQHandler+0xbc>
 8002dcc:	68da      	ldr	r2, [r3, #12]
 8002dce:	4620      	mov	r0, r4
 8002dd0:	f022 0240 	bic.w	r2, r2, #64	; 0x40
 8002dd4:	60da      	str	r2, [r3, #12]
 8002dd6:	2320      	movs	r3, #32
 8002dd8:	f884 3039 	strb.w	r3, [r4, #57]	; 0x39
 8002ddc:	f7ff ff27 	bl	8002c2e <HAL_UART_TxCpltCallback>
 8002de0:	e7c0      	b.n	8002d64 <HAL_UART_IRQHandler+0xbc>
 8002de2:	bf00      	nop
 8002de4:	08002de9 	.word	0x08002de9

08002de8 <UART_DMAAbortOnError>:
 8002de8:	b508      	push	{r3, lr}
 8002dea:	2300      	movs	r3, #0
 8002dec:	6a40      	ldr	r0, [r0, #36]	; 0x24
 8002dee:	85c3      	strh	r3, [r0, #46]	; 0x2e
 8002df0:	84c3      	strh	r3, [r0, #38]	; 0x26
 8002df2:	f7ff ff58 	bl	8002ca6 <HAL_UART_ErrorCallback>
 8002df6:	bd08      	pop	{r3, pc}

08002df8 <USB_CoreInit>:
 8002df8:	b084      	sub	sp, #16
 8002dfa:	a801      	add	r0, sp, #4
 8002dfc:	e880 000e 	stmia.w	r0, {r1, r2, r3}
 8002e00:	b004      	add	sp, #16
 8002e02:	2000      	movs	r0, #0
 8002e04:	4770      	bx	lr

08002e06 <USB_DisableGlobalInt>:
 8002e06:	f8b0 3040 	ldrh.w	r3, [r0, #64]	; 0x40
 8002e0a:	f423 537c 	bic.w	r3, r3, #16128	; 0x3f00
 8002e0e:	045b      	lsls	r3, r3, #17
 8002e10:	0c5b      	lsrs	r3, r3, #17
 8002e12:	f8a0 3040 	strh.w	r3, [r0, #64]	; 0x40
 8002e16:	2000      	movs	r0, #0
 8002e18:	4770      	bx	lr

08002e1a <USB_SetCurrentMode>:
 8002e1a:	2000      	movs	r0, #0
 8002e1c:	4770      	bx	lr

08002e1e <USB_DevInit>:
 8002e1e:	b084      	sub	sp, #16
 8002e20:	b510      	push	{r4, lr}
 8002e22:	ac03      	add	r4, sp, #12
 8002e24:	e884 000e 	stmia.w	r4, {r1, r2, r3}
 8002e28:	e8bd 4010 	ldmia.w	sp!, {r4, lr}
 8002e2c:	2301      	movs	r3, #1
 8002e2e:	f8a0 3040 	strh.w	r3, [r0, #64]	; 0x40
 8002e32:	2300      	movs	r3, #0
 8002e34:	f8a0 3040 	strh.w	r3, [r0, #64]	; 0x40
 8002e38:	f8a0 3044 	strh.w	r3, [r0, #68]	; 0x44
 8002e3c:	f8a0 3050 	strh.w	r3, [r0, #80]	; 0x50
 8002e40:	f8b0 2040 	ldrh.w	r2, [r0, #64]	; 0x40
 8002e44:	b004      	add	sp, #16
 8002e46:	f442 423f 	orr.w	r2, r2, #48896	; 0xbf00
 8002e4a:	f8a0 2040 	strh.w	r2, [r0, #64]	; 0x40
 8002e4e:	4618      	mov	r0, r3
 8002e50:	4770      	bx	lr

08002e52 <USB_DevDisconnect>:
 8002e52:	2000      	movs	r0, #0
 8002e54:	4770      	bx	lr
	...

08002e58 <__libc_init_array>:
 8002e58:	b570      	push	{r4, r5, r6, lr}
 8002e5a:	2500      	movs	r5, #0
 8002e5c:	4e0c      	ldr	r6, [pc, #48]	; (8002e90 <__libc_init_array+0x38>)
 8002e5e:	4c0d      	ldr	r4, [pc, #52]	; (8002e94 <__libc_init_array+0x3c>)
 8002e60:	1ba4      	subs	r4, r4, r6
 8002e62:	10a4      	asrs	r4, r4, #2
 8002e64:	42a5      	cmp	r5, r4
 8002e66:	d109      	bne.n	8002e7c <__libc_init_array+0x24>
 8002e68:	f000 f822 	bl	8002eb0 <_init>
 8002e6c:	2500      	movs	r5, #0
 8002e6e:	4e0a      	ldr	r6, [pc, #40]	; (8002e98 <__libc_init_array+0x40>)
 8002e70:	4c0a      	ldr	r4, [pc, #40]	; (8002e9c <__libc_init_array+0x44>)
 8002e72:	1ba4      	subs	r4, r4, r6
 8002e74:	10a4      	asrs	r4, r4, #2
 8002e76:	42a5      	cmp	r5, r4
 8002e78:	d105      	bne.n	8002e86 <__libc_init_array+0x2e>
 8002e7a:	bd70      	pop	{r4, r5, r6, pc}
 8002e7c:	f856 3025 	ldr.w	r3, [r6, r5, lsl #2]
 8002e80:	4798      	blx	r3
 8002e82:	3501      	adds	r5, #1
 8002e84:	e7ee      	b.n	8002e64 <__libc_init_array+0xc>
 8002e86:	f856 3025 	ldr.w	r3, [r6, r5, lsl #2]
 8002e8a:	4798      	blx	r3
 8002e8c:	3501      	adds	r5, #1
 8002e8e:	e7f2      	b.n	8002e76 <__libc_init_array+0x1e>
 8002e90:	0800cfe8 	.word	0x0800cfe8
 8002e94:	0800cfe8 	.word	0x0800cfe8
 8002e98:	0800cfe8 	.word	0x0800cfe8
 8002e9c:	0800cfec 	.word	0x0800cfec

08002ea0 <memset>:
 8002ea0:	4603      	mov	r3, r0
 8002ea2:	4402      	add	r2, r0
 8002ea4:	4293      	cmp	r3, r2
 8002ea6:	d100      	bne.n	8002eaa <memset+0xa>
 8002ea8:	4770      	bx	lr
 8002eaa:	f803 1b01 	strb.w	r1, [r3], #1
 8002eae:	e7f9      	b.n	8002ea4 <memset+0x4>

08002eb0 <_init>:
 8002eb0:	b5f8      	push	{r3, r4, r5, r6, r7, lr}
 8002eb2:	bf00      	nop
 8002eb4:	bcf8      	pop	{r3, r4, r5, r6, r7}
 8002eb6:	bc08      	pop	{r3}
 8002eb8:	469e      	mov	lr, r3
 8002eba:	4770      	bx	lr

08002ebc <_fini>:
 8002ebc:	b5f8      	push	{r3, r4, r5, r6, r7, lr}
 8002ebe:	bf00      	nop
 8002ec0:	bcf8      	pop	{r3, r4, r5, r6, r7}
 8002ec2:	bc08      	pop	{r3}
 8002ec4:	469e      	mov	lr, r3
 8002ec6:	4770      	bx	lr
